-----BEGIN PRIVATE KEY-----
MIIG/QIBADANBgkqhkiG9w0BAQEFAASCBucwggbjAgEAAoIBgQCkcimjXeQ3ou7k
bs4W1BJpk6m1QqQiMW/oZr0m5d2JAH/CTD4oRI6XyLO79B7ulwbvtYjmRLsPDhZG
4WIUbeCJcJIXOFUUNuYGGL1w8sf6/SxTTu3nU3WW6O3WdszISk51P5u1J7mbCgrY
OyhF2uX900lT95V5/b94y4GzGLwlmeJN1RAYLwB/DaqvJX5G5zECAHdmKvO1wgFk
ShDRLEQP3JJ8sjCMWJ65zjRvof3vdkCJLDuCeMeByf1aJqZDia/gGXqhctuauuw0
+MzEuRnXRv36d8doxwCD923IvDrT7dxDeZcNC7AUPKHr8teYBdYDfHehvXHGwfHc
85GrG6e7Xmd/OzfPpjvj8d47/dyJghBTR7Wc6cmXAuItv+LkGm1zWpssxNN1JzMT
Pvva458Bw6c328gih7yEAQFzbIOyVOdTFXz1snMuRzc/tbb71dAiLFFWgzJefne2
/tyeWlpIqhLEy4Xkd4xPN6z+89M2XOZdbPU069leyvgKhKNLyKECAwEAAQKCAYAV
F6eLksFw+W8W0beRagYqkIwV+cQ/toOaFYNxd85ggjXg4BKg65o2kcGr+/XzuF9l
Y615i5tKpQ3qbYI9CJLiThQO8mTHQPtkEMxLrnhEEzEaRmdxYl0UzC+lcHt3vUAu
/celBsFhx3n4ni3eN+OEGROwt3LuwMNMZR3vsN6BHCnQveFgmLbBlSktaeu2gHTi
wtiNvDiiOY4gJPffPIRGXI5VfC2J8tv5DR/gqbB+hHZmocvIQmGknhnm9EojI4e8
muyuxSrFkBqKFyYy9NYxHCeWWAX1jPtC/2iA2XZjnTedepK11OWpjHgNKaSzpMD1
ONX+nocoM/rms5NFkg/qF+6QnrO/DPx4sjmYegxhNvanTFOYGfVMx9ervL0eMC8y
fqVtaOxqpIrrw4qR+uUaMQwY698p4uwLstvKUwx3688mpfNb38hFPkr6NhrqRx5Z
KzMKp5ZRVJeMy4piXl+jndAQSi9up3QrtdsfI5RdEF7gT6IMB1zU4z3zzxsXClkC
gcEA4sD8RQtSHwcI23WBtqdt7Rt58M95XwNC9VNDgnfc0neL4lbksQ8EWNbtvNpj
E9CvhiFbJnEZrB/Mz/lleRjEwMQgdTjyvTaQKS7EchiVJ7Zq1exnstrc/N0kZj5J
m2+ugpoRIKdh6ZKylSKE2Bn8DmPLkp2z9GLv5GvjvrkLpt280kiELvIGcuJC+ke3
8YVr8DqPLnz3C8rwXu9i9JMLtZ1prumvqBAMUiWWU0wjZlQJhRoQZ85T8cGFYlii
lTWnAoHBALmn4SoZKUkuvPidx5xCfEkdykAfMJI7lZoCxZWSSvgntD+w2i5wacEO
zI8JSv+QjmakpvGwbJuqJqyqcZi5Uwvny2CVK73PvRkmT/nnFHwRNVk1NYmnNvMK
Isdu0BLYQ3UcosZNgYQ95x1fsrdWfFy+A6nfXOmt99mKSjG4rtVPHcJdsOjD1MtG
P9gBHicvDh9CVZ8FaQmk0qVhqpNm41BujQDcbKfCeQJuCR5TOKfAYgguw44nTSN0
7SxvCTxodwKBwDwBdADVeRrq4qYo13W9ovJvJfra/LRvCYYgTao2DALKTgNMmWJd
pfnYjrs+U5/HxttI8nUe0vtgwvN6fSbprg+RF0HOGzaFPOsZDDVhWf9TX7xSvjJv
hrGH1/0SmKoAiP7YxJWOlfOYtZePtfX2EmTAdfvLrfaLRA5/mpo7H+E9pp1DQW+m
7pvyUmUnG39XnnPJG2DjAwFk5+1HjjlIvH2INZJrFufzrz8B4WETsf5/WLGXbyX5
TO+aFbEr4YJ42wKBwBhHBcC1jZqOTBPOvh2G7C27gYklCvr0Y7nCBwhqGvecaYuy
mrVb6dhfEQzbUD1fL9/oRBRy16D7fRczKquoAF4cL5Ivr4qgsb+qLOcm+pzGu00x
EhEwFpVti+K8cOUl9pxH5Fk+JWOfnKtQqlQjMRwHlP8PwFymbTS7Srx5xBMMx311
Nv8ZLKhwRUT/0GubUaNwzzV+RaAHN6x8uwuPdsY7zqCAMo01dxGERhj7FPuKwscD
JnteVE4AqksXMgP+PQKBwQCPH+s2YqXBzNcp6g542Cxlf3B5/cicUZB2FFFjGV3z
zML+NJqvUWtvGNr97cFpZYT15xquvz+Q5bf6TsT6PSqzYfeknKnmbdWp2h4S+R4i
7/5OfbhoztoxswIq44vmmXEWnOI9lHP2TW212+K4Edu5uL2JtEG2NoyHT3UP02Hz
/KFaWNZYTNU6+vwvvSVOlsaCxL1t70wEDxZfq9PvUIK24gbtciuLb1tYYukaVbXq
J5edRc4z62JZnOKfcKCflq4=
-----END PRIVATE KEY-----
Certificate:
    Data:
        Version: 3 (0x2)
        Serial Number:
            cb:2d:80:99:5a:69:52:5f
        Signature Algorithm: sha256WithRSAEncryption
        Issuer: C=XY, O=Python Software Foundation CA, CN=our-ca-server
        Validity
            Not Before: Aug 29 14:23:16 2018 GMT
            Not After : Oct 28 14:23:16 2042 GMT
        Subject: C=XY, L=Castle Anthrax, O=Python Software Foundation, CN=allsans
        Subject Public Key Info:
            Public Key Algorithm: rsaEncryption
                Public-Key: (3072 bit)
                Modulus:
                    00:a4:72:29:a3:5d:e4:37:a2:ee:e4:6e:ce:16:d4:
                    12:69:93:a9:b5:42:a4:22:31:6f:e8:66:bd:26:e5:
                    dd:89:00:7f:c2:4c:3e:28:44:8e:97:c8:b3:bb:f4:
                    1e:ee:97:06:ef:b5:88:e6:44:bb:0f:0e:16:46:e1:
                    62:14:6d:e0:89:70:92:17:38:55:14:36:e6:06:18:
                    bd:70:f2:c7:fa:fd:2c:53:4e:ed:e7:53:75:96:e8:
                    ed:d6:76:cc:c8:4a:4e:75:3f:9b:b5:27:b9:9b:0a:
                    0a:d8:3b:28:45:da:e5:fd:d3:49:53:f7:95:79:fd:
                    bf:78:cb:81:b3:18:bc:25:99:e2:4d:d5:10:18:2f:
                    00:7f:0d:aa:af:25:7e:46:e7:31:02:00:77:66:2a:
                    f3:b5:c2:01:64:4a:10:d1:2c:44:0f:dc:92:7c:b2:
                    30:8c:58:9e:b9:ce:34:6f:a1:fd:ef:76:40:89:2c:
                    3b:82:78:c7:81:c9:fd:5a:26:a6:43:89:af:e0:19:
                    7a:a1:72:db:9a:ba:ec:34:f8:cc:c4:b9:19:d7:46:
                    fd:fa:77:c7:68:c7:00:83:f7:6d:c8:bc:3a:d3:ed:
                    dc:43:79:97:0d:0b:b0:14:3c:a1:eb:f2:d7:98:05:
                    d6:03:7c:77:a1:bd:71:c6:c1:f1:dc:f3:91:ab:1b:
                    a7:bb:5e:67:7f:3b:37:cf:a6:3b:e3:f1:de:3b:fd:
                    dc:89:82:10:53:47:b5:9c:e9:c9:97:02:e2:2d:bf:
                    e2:e4:1a:6d:73:5a:9b:2c:c4:d3:75:27:33:13:3e:
                    fb:da:e3:9f:01:c3:a7:37:db:c8:22:87:bc:84:01:
                    01:73:6c:83:b2:54:e7:53:15:7c:f5:b2:73:2e:47:
                    37:3f:b5:b6:fb:d5:d0:22:2c:51:56:83:32:5e:7e:
                    77:b6:fe:dc:9e:5a:5a:48:aa:12:c4:cb:85:e4:77:
                    8c:4f:37:ac:fe:f3:d3:36:5c:e6:5d:6c:f5:34:eb:
                    d9:5e:ca:f8:0a:84:a3:4b:c8:a1
                Exponent: 65537 (0x10001)
        X509v3 extensions:
            X509v3 Subject Alternative Name: 
                DNS:allsans, othername: 1.2.3.4::some other identifier, othername: 1.3.6.1.5.2.2::<unsupported>, email:user@example.org, DNS:www.example.org, DirName:/C=XY/L=Castle Anthrax/O=Python Software Foundation/CN=dirname example, URI:https://www.python.org/, IP Address:127.0.0.1, IP Address:0:0:0:0:0:0:0:1, Registered ID:1.2.3.4.5
            X509v3 Key Usage: critical
                Digital Signature, Key Encipherment
            X509v3 Extended Key Usage: 
                TLS Web Server Authentication, TLS Web Client Authentication
            X509v3 Basic Constraints: critical
                CA:FALSE
            X509v3 Subject Key Identifier: 
                4D:1F:6D:42:44:56:1E:98:6F:55:87:19:BB:98:1F:A7:8B:B9:51:6C
            X509v3 Authority Key Identifier: 
                keyid:AA:8A:80:4E:45:20:88:4B:6D:11:6B:4B:D2:85:DC:FF:85:F4:B8:50
                DirName:/C=XY/O=Python Software Foundation CA/CN=our-ca-server
                serial:CB:2D:80:99:5A:69:52:5B
            Authority Information Access: 
                CA Issuers - URI:http://testca.pythontest.net/testca/pycacert.cer
                OCSP - URI:http://testca.pythontest.net/testca/ocsp/
            X509v3 CRL Distribution Points: 
                Full Name:
                  URI:http://testca.pythontest.net/testca/revocation.crl
    Signature Algorithm: sha256WithRSAEncryption
    Signature Value:
        1d:ac:22:a4:ac:20:23:19:40:7c:a4:49:de:ee:93:b8:fa:5e:
        27:85:c8:3b:93:ee:49:2c:e9:59:b5:ae:c4:b4:41:81:e4:64:
        30:3e:c2:09:63:dd:72:19:95:91:e8:ae:a1:83:ce:d1:7f:98:
        5c:b2:6f:ad:82:65:b9:02:2e:c0:b7:51:50:4f:8f:83:ef:b6:
        72:8d:1d:fd:e1:49:a3:2a:7d:3f:9d:87:0c:3d:ac:db:f4:ce:
        f0:eb:b6:7a:96:57:3b:f1:dc:40:8d:fb:8f:d9:93:07:a2:a7:
        8c:dd:e9:73:a0:e1:c7:85:f8:bc:01:98:b2:ea:cc:9b:bc:ad:
        dd:3e:26:c7:75:e0:52:69:8d:03:a5:30:da:31:f1:e9:fd:61:
        b7:e3:b5:6e:2d:53:42:a1:74:91:36:2b:b2:04:fe:eb:c2:5c:
        5b:7f:0d:ee:49:ee:42:71:50:0f:63:86:6c:b0:26:a4:f1:fd:
        2a:ce:34:82:b2:00:20:b6:9c:c9:5d:3b:14:f8:41:d0:48:5a:
        3a:b5:2e:6e:9c:6f:c7:8d:7f:16:ea:ca:eb:ae:18:01:0b:a1:
        dc:a9:b1:dc:7d:00:38:c7:28:0b:aa:25:28:6b:9a:04:91:13:
        18:2e:0c:20:a4:44:a5:c3:2b:ff:b2:ed:b9:b3:fd:bf:83:a5:
        59:18:67:17:c5:03:a2:18:c1:9b:59:ec:94:18:ae:b3:57:9a:
        87:71:4e:2d:e4:e2:16:c2:17:14:d6:fc:24:f2:1e:8f:a1:d5:
        e7:ce:7d:0b:d5:00:4a:5a:48:e4:f7:23:37:78:97:fa:81:38:
        ab:1a:fd:94:45:a6:1e:ea:cd:89:17:53:b5:a8:02:4e:d3:eb:
        c0:95:cd:85:ce:20:ca:85:8f:e5:db:c2:d9:7c:be:18:83:68:
        dd:9d:a4:69:18:67:09:1d:b6:26:00:d2:8e:67:ae:c6:a4:f9:
        79:1c:4f:70:44:7d:04:cf:6d:7d:86:02:07:d5:29:a8:40:4e:
        da:14:c7:45:91:14
-----BEGIN CERTIFICATE-----
MIIHDTCCBXWgAwIBAgIJAMstgJlaaVJfMA0GCSqGSIb3DQEBCwUAME0xCzAJBgNV
BAYTAlhZMSYwJAYDVQQKDB1QeXRob24gU29mdHdhcmUgRm91bmRhdGlvbiBDQTEW
MBQGA1UEAwwNb3VyLWNhLXNlcnZlcjAeFw0xODA4MjkxNDIzMTZaFw00MjEwMjgx
NDIzMTZaMF0xCzAJBgNVBAYTAlhZMRcwFQYDVQQHDA5DYXN0bGUgQW50aHJheDEj
MCEGA1UECgwaUHl0aG9uIFNvZnR3YXJlIEZvdW5kYXRpb24xEDAOBgNVBAMMB2Fs
bHNhbnMwggGiMA0GCSqGSIb3DQEBAQUAA4IBjwAwggGKAoIBgQCkcimjXeQ3ou7k
bs4W1BJpk6m1QqQiMW/oZr0m5d2JAH/CTD4oRI6XyLO79B7ulwbvtYjmRLsPDhZG
4WIUbeCJcJIXOFUUNuYGGL1w8sf6/SxTTu3nU3WW6O3WdszISk51P5u1J7mbCgrY
OyhF2uX900lT95V5/b94y4GzGLwlmeJN1RAYLwB/DaqvJX5G5zECAHdmKvO1wgFk
ShDRLEQP3JJ8sjCMWJ65zjRvof3vdkCJLDuCeMeByf1aJqZDia/gGXqhctuauuw0
+MzEuRnXRv36d8doxwCD923IvDrT7dxDeZcNC7AUPKHr8teYBdYDfHehvXHGwfHc
85GrG6e7Xmd/OzfPpjvj8d47/dyJghBTR7Wc6cmXAuItv+LkGm1zWpssxNN1JzMT
Pvva458Bw6c328gih7yEAQFzbIOyVOdTFXz1snMuRzc/tbb71dAiLFFWgzJefne2
/tyeWlpIqhLEy4Xkd4xPN6z+89M2XOZdbPU069leyvgKhKNLyKECAwEAAaOCAt4w
ggLaMIIBMAYDVR0RBIIBJzCCASOCB2FsbHNhbnOgHgYDKgMEoBcMFXNvbWUgb3Ro
ZXIgaWRlbnRpZmllcqA1BgYrBgEFAgKgKzApoBAbDktFUkJFUk9TLlJFQUxNoRUw
E6ADAgEBoQwwChsIdXNlcm5hbWWBEHVzZXJAZXhhbXBsZS5vcmeCD3d3dy5leGFt
cGxlLm9yZ6RnMGUxCzAJBgNVBAYTAlhZMRcwFQYDVQQHDA5DYXN0bGUgQW50aHJh
eDEjMCEGA1UECgwaUHl0aG9uIFNvZnR3YXJlIEZvdW5kYXRpb24xGDAWBgNVBAMM
D2Rpcm5hbWUgZXhhbXBsZYYXaHR0cHM6Ly93d3cucHl0aG9uLm9yZy+HBH8AAAGH
EAAAAAAAAAAAAAAAAAAAAAGIBCoDBAUwDgYDVR0PAQH/BAQDAgWgMB0GA1UdJQQW
MBQGCCsGAQUFBwMBBggrBgEFBQcDAjAMBgNVHRMBAf8EAjAAMB0GA1UdDgQWBBRN
H21CRFYemG9Vhxm7mB+ni7lRbDB9BgNVHSMEdjB0gBSqioBORSCIS20Ra0vShdz/
hfS4UKFRpE8wTTELMAkGA1UEBhMCWFkxJjAkBgNVBAoMHVB5dGhvbiBTb2Z0d2Fy
ZSBGb3VuZGF0aW9uIENBMRYwFAYDVQQDDA1vdXItY2Etc2VydmVyggkAyy2AmVpp
UlswgYMGCCsGAQUFBwEBBHcwdTA8BggrBgEFBQcwAoYwaHR0cDovL3Rlc3RjYS5w
eXRob250ZXN0Lm5ldC90ZXN0Y2EvcHljYWNlcnQuY2VyMDUGCCsGAQUFBzABhilo
dHRwOi8vdGVzdGNhLnB5dGhvbnRlc3QubmV0L3Rlc3RjYS9vY3NwLzBDBgNVHR8E
PDA6MDigNqA0hjJodHRwOi8vdGVzdGNhLnB5dGhvbnRlc3QubmV0L3Rlc3RjYS9y
ZXZvY2F0aW9uLmNybDANBgkqhkiG9w0BAQsFAAOCAYEAHawipKwgIxlAfKRJ3u6T
uPpeJ4XIO5PuSSzpWbWuxLRBgeRkMD7CCWPdchmVkeiuoYPO0X+YXLJvrYJluQIu
wLdRUE+Pg++2co0d/eFJoyp9P52HDD2s2/TO8Ou2epZXO/HcQI37j9mTB6KnjN3p
c6Dhx4X4vAGYsurMm7yt3T4mx3XgUmmNA6Uw2jHx6f1ht+O1bi1TQqF0kTYrsgT+
68JcW38N7knuQnFQD2OGbLAmpPH9Ks40grIAILacyV07FPhB0EhaOrUubpxvx41/
FurK664YAQuh3Kmx3H0AOMcoC6olKGuaBJETGC4MIKREpcMr/7LtubP9v4OlWRhn
F8UDohjBm1nslBius1eah3FOLeTiFsIXFNb8JPIej6HV5859C9UASlpI5PcjN3iX
+oE4qxr9lEWmHurNiRdTtagCTtPrwJXNhc4gyoWP5dvC2Xy+GINo3Z2kaRhnCR22
JgDSjmeuxqT5eRxPcER9BM9tfYYCB9UpqEBO2hTHRZEU
-----END CERTIFICATE-----
