-----BEGIN PRIVATE KEY-----
MIIG/QIBADANBgkqhkiG9w0BAQEFAASCBucwggbjAgEAAoIBgQDquPEYBtJq3CDO
p5cHwWZACGqOPgW/D61scp9htsbkjEzV2/h3gAXJWUrWxxD6+TGoVAFRsgvbrxqF
WITI3oAzBH/Na3Um+SD0WfpQlUflNPpt6JWdK1igd5W+/zplerJ6jSU1s6WVvx6m
oUxO4h/1WU9BgNZmKalN3d+HG61GF+1FvjvWObo6qLke6HQAowcmeKPA/NStA70o
yQkNxjJJdCmJDvW7+3ImZyOwyuOMrG2PUSgpgXjiXINcZ56kaw6cTYvAvimTD536
q7PbBWqWB/tKZLuZM3zNRiG9zukgKf+Qq+NKR9l1hGF0OvqNH6+WPp5Naa0URSIu
Syu+5994A6h0ILBN/Gk1IReM/MkVNShWRBKo3PU9VpT4tdj/KJ2HL88oXBGLqy6F
W+qXQj7w0wSxRkaCapYpm4x+XkaoaFuhfF5Xyu2uUVKy4muEbrRXpq3jlHj1QWJK
6hoR2IplVnbA9uDmkiyJa5wBAkJCiVVtToWVSueASfB3hJCupNECAwEAAQKCAYA0
BRXlsclbhnq84haOUPX01giriqJiZDqWsNaS5NuylkeHFA++iECADcqQzCB+xtCT
Ej8SmIeZQfb6O5J+JBW8eNBMOfcGUqtTjEd2KYd8DGA+EJBr+0nSkn49DLqn9+fr
UjG/c5eMlwVXf6L2TpYvnYH7re6WSMBtcfFSs7cUtEPRM6Z2RWf5DSCt8W2YIIl6
pL0CDeaii5QWIGvhwh2t+tEjv42FgmYbjbsyuNxydlp3q1Bf1oJwhHlWdt6JaPIw
1sZUOgBKob2WDVMWEICg67R4exLf4yO5erHf97oNra5tl+zGPtz+iuXTSjYKccoW
hO4UoBqER4ZZA0AR4yfqy2bEh3G3nEMNKa66MN1YzV3SV83IatAuNk7tI9julIgJ
VIllYtLjOoumxGZwAVweW+/jaiKvERMqJnwcx0HoCDULLzxdL5d99jHbYbJ8qTVQ
7Bmq7D8b6VwdgRJi5pOs9zSPhRJRc4+5pdfGrenXo30zQm4Y9g9+pfliWsMdYzkC
gcEA+G2cpCj6zWgTcuntwxwGr/z3YxpWWTj/9FPobjyW6tfEHQvfjbV+ZgiLv6C6
VKWnzUp75GsYLAUM5r9YU+edXxEDxL/+cHYL5+Kh1Ij+G5ay+eg9MOy0nbUUFuvm
z5/aeadQMy3e18WeGyYhBOQhg9gbruF352GlL7rkzLYoPRNIAlxbWJFNh21Ijlqj
JVE+tz40mUO0RQ9rUxLad3Os9Ytivndxz0Vx9hm25WbFFtG/IMrwlPHs7wKfv9dh
iNtVAoHBAPHgY6sYiR4UmmxZ3GH2lFWkIQIvqQvytEAyeJMFq42VxVbNI08667R1
lIF/QHJulQeIQ+f9sGennMhnWUEDaqVCCSjrLpTmWXgzpgryQ2FHact5zbohAuhl
wn5QrFrrdkm0eeILUkcWaj3YmSyRI2WYFs1/4wDg8foNGgZ2rSUDik3XM0q7qZ/n
Ru5rY/iTb3kYnI7sgXZU4VFW2XJikENe3doN0tLqUrkUwztAHBbVglDtRnSp3wzy
m2q68zx7jQKBwElQp/K2eVXXSi4WpWl4Quz7HdMseaE5NihX/vdRgERsSt87ms0K
a/QWv49dEsBaZwwp2ChQBsEu+GC8xYd1ijb9IXyWILP10ourkZDUoRFpRwaDqFNg
9+i3AOfG1MYfae2PGBcSiXpqQr/GX+Y+oTl0tK7GsYkigwp0AIP9miB0KUMxGHAp
6ZR3Bvuj+hPQR07y17kHhxL+evD4Vmr8Q2XvrcOCIp9F4lz7t8M5sh6K5fn6ikea
og7jWlvWZ11pRQKBwQC8F5bqMoZOkg8UOz0aITpw7tWMcauv0ulBEv6YtkwWKmXv
fk77CgLJrrXxjhd75WqXFOxZt/o6YSmW3meWGyYPpS6iV2E+AXOJ+gAhewvS1kn7
JZlKKOmt95Qrzmh5u6mc32/4zH0LMu8jcRCMi8FO+9qfq9fHkyYZIZ8fb6Jtqjcf
GT6V2yGpa5zJQ1HWuDBzpyP4MQrsDk25hyRJw0QUX+196EoOIpJ5wx+fL9eoGhjg
/eNQTdlapD8f3InSevECgcA51roNeZVRIUzr4UJ4vLSh0IY0mfUv7H9gSi+lKcJc
csRBpnLzBI9Ryk1hnSZsh/3qiiT2qVgeJQOzBeSlRyObxYht6F6r9xCPP3Ret0bL
0+W9ntUdPs6RP/PKRj3Z4Zkc1va6ecjAtGHFP4YcdYOuWhA1l9NG5LA4pr6uwjg6
rlPZ4hymQH5iAKGJwFItTMvafItBT2CSVNs3feJn/r3rDZ3vAGBmhw1O7y6x+Xic
wDvE8YoE8jZcePFk0j5sxt8=
-----END PRIVATE KEY-----
Certificate:
    Data:
        Version: 3 (0x2)
        Serial Number:
            cb:2d:80:99:5a:69:52:60
        Signature Algorithm: sha256WithRSAEncryption
        Issuer: C=XY, O=Python Software Foundation CA, CN=our-ca-server
        Validity
            Not Before: Aug 29 14:23:16 2018 GMT
            Not After : Oct 28 14:23:16 2042 GMT
        Subject: C=XY, L=Castle Anthrax, O=Python Software Foundation, CN=idnsans
        Subject Public Key Info:
            Public Key Algorithm: rsaEncryption
                Public-Key: (3072 bit)
                Modulus:
                    00:ea:b8:f1:18:06:d2:6a:dc:20:ce:a7:97:07:c1:
                    66:40:08:6a:8e:3e:05:bf:0f:ad:6c:72:9f:61:b6:
                    c6:e4:8c:4c:d5:db:f8:77:80:05:c9:59:4a:d6:c7:
                    10:fa:f9:31:a8:54:01:51:b2:0b:db:af:1a:85:58:
                    84:c8:de:80:33:04:7f:cd:6b:75:26:f9:20:f4:59:
                    fa:50:95:47:e5:34:fa:6d:e8:95:9d:2b:58:a0:77:
                    95:be:ff:3a:65:7a:b2:7a:8d:25:35:b3:a5:95:bf:
                    1e:a6:a1:4c:4e:e2:1f:f5:59:4f:41:80:d6:66:29:
                    a9:4d:dd:df:87:1b:ad:46:17:ed:45:be:3b:d6:39:
                    ba:3a:a8:b9:1e:e8:74:00:a3:07:26:78:a3:c0:fc:
                    d4:ad:03:bd:28:c9:09:0d:c6:32:49:74:29:89:0e:
                    f5:bb:fb:72:26:67:23:b0:ca:e3:8c:ac:6d:8f:51:
                    28:29:81:78:e2:5c:83:5c:67:9e:a4:6b:0e:9c:4d:
                    8b:c0:be:29:93:0f:9d:fa:ab:b3:db:05:6a:96:07:
                    fb:4a:64:bb:99:33:7c:cd:46:21:bd:ce:e9:20:29:
                    ff:90:ab:e3:4a:47:d9:75:84:61:74:3a:fa:8d:1f:
                    af:96:3e:9e:4d:69:ad:14:45:22:2e:4b:2b:be:e7:
                    df:78:03:a8:74:20:b0:4d:fc:69:35:21:17:8c:fc:
                    c9:15:35:28:56:44:12:a8:dc:f5:3d:56:94:f8:b5:
                    d8:ff:28:9d:87:2f:cf:28:5c:11:8b:ab:2e:85:5b:
                    ea:97:42:3e:f0:d3:04:b1:46:46:82:6a:96:29:9b:
                    8c:7e:5e:46:a8:68:5b:a1:7c:5e:57:ca:ed:ae:51:
                    52:b2:e2:6b:84:6e:b4:57:a6:ad:e3:94:78:f5:41:
                    62:4a:ea:1a:11:d8:8a:65:56:76:c0:f6:e0:e6:92:
                    2c:89:6b:9c:01:02:42:42:89:55:6d:4e:85:95:4a:
                    e7:80:49:f0:77:84:90:ae:a4:d1
                Exponent: 65537 (0x10001)
        X509v3 extensions:
            X509v3 Subject Alternative Name: 
                DNS:idnsans, DNS:xn--knig-5qa.idn.pythontest.net, DNS:xn--knigsgsschen-lcb0w.idna2003.pythontest.net, DNS:xn--knigsgchen-b4a3dun.idna2008.pythontest.net, DNS:xn--nxasmq6b.idna2003.pythontest.net, DNS:xn--nxasmm1c.idna2008.pythontest.net
            X509v3 Key Usage: critical
                Digital Signature, Key Encipherment
            X509v3 Extended Key Usage: 
                TLS Web Server Authentication, TLS Web Client Authentication
            X509v3 Basic Constraints: critical
                CA:FALSE
            X509v3 Subject Key Identifier: 
                1E:75:DD:FF:79:07:C4:C8:FB:77:D2:F6:35:C0:BD:90:BC:55:10:4F
            X509v3 Authority Key Identifier: 
                keyid:AA:8A:80:4E:45:20:88:4B:6D:11:6B:4B:D2:85:DC:FF:85:F4:B8:50
                DirName:/C=XY/O=Python Software Foundation CA/CN=our-ca-server
                serial:CB:2D:80:99:5A:69:52:5B
            Authority Information Access: 
                CA Issuers - URI:http://testca.pythontest.net/testca/pycacert.cer
                OCSP - URI:http://testca.pythontest.net/testca/ocsp/
            X509v3 CRL Distribution Points: 
                Full Name:
                  URI:http://testca.pythontest.net/testca/revocation.crl
    Signature Algorithm: sha256WithRSAEncryption
    Signature Value:
        85:c7:c7:06:bf:c5:83:22:22:96:d4:16:2e:19:bd:47:63:54:
        41:ce:ea:92:86:e9:6c:f6:53:81:9b:b9:68:44:ab:42:38:99:
        fd:dc:68:0a:0b:0c:6a:d5:f8:59:81:e4:6d:56:9c:8d:5b:07:
        41:38:86:92:7c:d9:d4:0e:0d:ad:06:55:05:89:1a:aa:0a:af:
        d5:60:e9:de:69:84:d4:22:bd:89:45:88:2c:8c:c7:0f:47:62:
        1c:72:6f:f4:e8:8c:86:dd:5c:87:ad:be:b9:c4:f3:c9:23:fc:
        c5:5a:71:26:f2:a5:8c:47:dd:c9:34:d9:1d:21:a5:c4:5c:ec:
        cb:e7:e7:9d:8b:4f:c3:50:0a:b9:8c:2e:9f:b9:5d:fe:6d:38:
        12:61:54:21:02:0d:d5:a3:cf:9d:4b:4e:48:f6:eb:5c:5b:9a:
        5f:1b:f8:03:56:47:d4:1d:d3:f5:26:98:be:b4:ce:2b:d8:92:
        2f:10:11:c3:24:48:a9:69:96:d6:09:e7:37:0f:c1:ca:32:2c:
        73:e7:aa:1b:44:9d:96:8d:90:a1:db:9d:46:cc:9c:95:e2:67:
        5b:0f:09:55:1b:9d:6c:77:2e:6c:fa:58:64:5d:1a:94:a7:52:
        5d:ef:fe:01:65:cc:5a:ae:ae:59:c2:a0:79:fa:36:5c:62:b5:
        16:01:5d:39:e9:67:37:bf:82:f8:f9:5c:06:5e:ad:0e:36:e6:
        c9:ab:de:17:08:0c:f6:1c:a7:64:30:8b:36:6a:ab:e0:72:c4:
        93:ce:fb:b7:b9:f2:56:d3:57:74:0b:48:2a:a5:16:84:e8:0e:
        35:a5:94:6d:61:88:29:42:81:53:92:fe:3a:f5:e0:a7:29:de:
        12:cb:3d:91:b7:49:2c:b1:a3:0c:74:47:77:15:0b:7e:0a:5c:
        08:3d:b3:3e:f3:7c:36:47:61:25:7d:45:f0:08:df:63:94:36:
        d6:73:f1:03:13:ec:a4:3c:3c:b9:98:b7:94:e3:c8:8b:f3:09:
        72:77:a3:d7:18:de
-----BEGIN CERTIFICATE-----
MIIGvTCCBSWgAwIBAgIJAMstgJlaaVJgMA0GCSqGSIb3DQEBCwUAME0xCzAJBgNV
BAYTAlhZMSYwJAYDVQQKDB1QeXRob24gU29mdHdhcmUgRm91bmRhdGlvbiBDQTEW
MBQGA1UEAwwNb3VyLWNhLXNlcnZlcjAeFw0xODA4MjkxNDIzMTZaFw00MjEwMjgx
NDIzMTZaMF0xCzAJBgNVBAYTAlhZMRcwFQYDVQQHDA5DYXN0bGUgQW50aHJheDEj
MCEGA1UECgwaUHl0aG9uIFNvZnR3YXJlIEZvdW5kYXRpb24xEDAOBgNVBAMMB2lk
bnNhbnMwggGiMA0GCSqGSIb3DQEBAQUAA4IBjwAwggGKAoIBgQDquPEYBtJq3CDO
p5cHwWZACGqOPgW/D61scp9htsbkjEzV2/h3gAXJWUrWxxD6+TGoVAFRsgvbrxqF
WITI3oAzBH/Na3Um+SD0WfpQlUflNPpt6JWdK1igd5W+/zplerJ6jSU1s6WVvx6m
oUxO4h/1WU9BgNZmKalN3d+HG61GF+1FvjvWObo6qLke6HQAowcmeKPA/NStA70o
yQkNxjJJdCmJDvW7+3ImZyOwyuOMrG2PUSgpgXjiXINcZ56kaw6cTYvAvimTD536
q7PbBWqWB/tKZLuZM3zNRiG9zukgKf+Qq+NKR9l1hGF0OvqNH6+WPp5Naa0URSIu
Syu+5994A6h0ILBN/Gk1IReM/MkVNShWRBKo3PU9VpT4tdj/KJ2HL88oXBGLqy6F
W+qXQj7w0wSxRkaCapYpm4x+XkaoaFuhfF5Xyu2uUVKy4muEbrRXpq3jlHj1QWJK
6hoR2IplVnbA9uDmkiyJa5wBAkJCiVVtToWVSueASfB3hJCupNECAwEAAaOCAo4w
ggKKMIHhBgNVHREEgdkwgdaCB2lkbnNhbnOCH3huLS1rbmlnLTVxYS5pZG4ucHl0
aG9udGVzdC5uZXSCLnhuLS1rbmlnc2dzc2NoZW4tbGNiMHcuaWRuYTIwMDMucHl0
aG9udGVzdC5uZXSCLnhuLS1rbmlnc2djaGVuLWI0YTNkdW4uaWRuYTIwMDgucHl0
aG9udGVzdC5uZXSCJHhuLS1ueGFzbXE2Yi5pZG5hMjAwMy5weXRob250ZXN0Lm5l
dIIkeG4tLW54YXNtbTFjLmlkbmEyMDA4LnB5dGhvbnRlc3QubmV0MA4GA1UdDwEB
/wQEAwIFoDAdBgNVHSUEFjAUBggrBgEFBQcDAQYIKwYBBQUHAwIwDAYDVR0TAQH/
BAIwADAdBgNVHQ4EFgQUHnXd/3kHxMj7d9L2NcC9kLxVEE8wfQYDVR0jBHYwdIAU
qoqATkUgiEttEWtL0oXc/4X0uFChUaRPME0xCzAJBgNVBAYTAlhZMSYwJAYDVQQK
DB1QeXRob24gU29mdHdhcmUgRm91bmRhdGlvbiBDQTEWMBQGA1UEAwwNb3VyLWNh
LXNlcnZlcoIJAMstgJlaaVJbMIGDBggrBgEFBQcBAQR3MHUwPAYIKwYBBQUHMAKG
MGh0dHA6Ly90ZXN0Y2EucHl0aG9udGVzdC5uZXQvdGVzdGNhL3B5Y2FjZXJ0LmNl
cjA1BggrBgEFBQcwAYYpaHR0cDovL3Rlc3RjYS5weXRob250ZXN0Lm5ldC90ZXN0
Y2Evb2NzcC8wQwYDVR0fBDwwOjA4oDagNIYyaHR0cDovL3Rlc3RjYS5weXRob250
ZXN0Lm5ldC90ZXN0Y2EvcmV2b2NhdGlvbi5jcmwwDQYJKoZIhvcNAQELBQADggGB
AIXHxwa/xYMiIpbUFi4ZvUdjVEHO6pKG6Wz2U4GbuWhEq0I4mf3caAoLDGrV+FmB
5G1WnI1bB0E4hpJ82dQODa0GVQWJGqoKr9Vg6d5phNQivYlFiCyMxw9HYhxyb/To
jIbdXIetvrnE88kj/MVacSbypYxH3ck02R0hpcRc7Mvn552LT8NQCrmMLp+5Xf5t
OBJhVCECDdWjz51LTkj261xbml8b+ANWR9Qd0/UmmL60zivYki8QEcMkSKlpltYJ
5zcPwcoyLHPnqhtEnZaNkKHbnUbMnJXiZ1sPCVUbnWx3Lmz6WGRdGpSnUl3v/gFl
zFqurlnCoHn6NlxitRYBXTnpZze/gvj5XAZerQ425smr3hcIDPYcp2QwizZqq+By
xJPO+7e58lbTV3QLSCqlFoToDjWllG1hiClCgVOS/jr14Kcp3hLLPZG3SSyxowx0
R3cVC34KXAg9sz7zfDZHYSV9RfAI32OUNtZz8QMT7KQ8PLmYt5TjyIvzCXJ3o9cY
3g==
-----END CERTIFICATE-----
