-----BEGIN PRIVATE KEY-----
MIIG/QIBADANBgkqhkiG9w0BAQEFAASCBucwggbjAgEAAoIBgQC/leIqUIcle9EA
wyc3zC/UsyKAv2R8FmzdYESJUYhxfQEsUxc4l+p3/kOjN39q6D7dRpjdaGc8edTM
TVgS4Uq1/o9Rw9a+FqlKzFFGkGRXfk8TF1dICF6B8DnL5jUAxMgotl//jdgT25UT
2Exg78bhfty3jsYw53qDI23Qf9M2shrP1JJO4YbaW7QIfLg9c6mNn1mz7gLFQBwn
uRuVJFkLR40KREkgQP13fy51hD0tSCqExs7jSFG7iTSAPk5xpJ0HmP7t2xVYQx7P
QnzRc46WUVjPtUgnq9nzr0j9yObWR4ubOOiC788+Zq3359d6xU7ycrSQvBOBf50N
0kIp4OCQ9Vrep9ODreVJdnyes2+qptpQI0f8VlJt4L/yxHW88UDFp/m3SZGzCTTH
HWolsVW+Sh5MnUm+ZxE8KX0XMOSPfpHlEFe2uTzDYHwI5v7AWspam8Qk3h779DJg
9fRB6rfALmQU0qq98ynBLJIXgELXsVy8Zn9nbcZdxCu3/MUAnZUCAwEAAQKCAYAE
5tDc11p2WpRHM9kiJw9I4vn/4BBc0XIPuTo0d9yvVuaKlU5wc8QoRrNJxlbarfXN
QG4kINKNezcl9NgX8whR+KD/AlfiXUeHI+ni0hcK2xVNGfDouq+vx8aixqav1ow7
YAYRI8/35/YZ24twtzPk0KSy/uOr4IFQYoqqYYz5HEUHeWfQV16InafiHU470ZfO
Vh4Zvv4Hjcau5krobszE8uiOzQUeeDO7Z/DdwPhPdL2uAwn/Fscu8u2kVtomzT9D
DWno+n+Rqwf9yA1WytTooefoYwAAQ7DSnGYYD6P0zl/d5FST99oP6qzzXRvEfIYn
O+8dy5QX05tEa34AnYJ+NPhfq2JmNhxuP4TDFn15fuJHhxhWaW4Ja1xc4nwC5v8Y
ZMya+/igvedLUu3VHXcd2uokSRYyMQ3ReQYTgxKGHBhxeiO401btrZK5LZqzhjE/
C8/7bn81qBOcFkKM3xkiGlusdlG6zQvgo7DJS9HEBgMzGr26aiDcJKfyJleaw80C
gcEAxedTE4yr3nyr7xKoIxmGje66gRsXy32xZfaYJcdRoHmLhahElkrh61pXbkIm
+i5wIsSmHUopWuqU6ew97qdestjFLPnbcrtC3SVjLd82c0weO4yOuQDzbvQQVMvU
Rd4gf5ak4e4DizDe93FBqQtt20qRUBzqjOxuP1wS9LFrVS4jSQZPEkLIZ6/m/aHm
Cs8pzkHBaQzrFfHWYhTr1GClwDJPbm4k5ZQL2wuBKYPyOL/FkJk53kpmqQbqsS4j
+CbDAoHBAPfTvppQCdVPg4k5n948ZX4JWgkl4Xyvyfgs4gmgVaiWmQGiycNldZbO
UfjB0r5egX2jS42hSD19Les7Df8adNoSQaoP79zrMAM4m7mOhtb9kxHDVhufMtqt
4Icx1FwZtkF2dx4BXI8OOZeYcFctGi5GGTnabdvW6eRgsgZ5YZ3JMn07Pz7Pg3Cm
9po3yo8oePVF5MLo5FxFPhOKfUxHWXFcBufnGBo1uqfKZGALlVwtCiuogHdGw2yb
U1jXvuvUxwKBwQCx3V7AAjzxwFDylG0C5s0UwQtkP4paPER05HUH9yS4uqSX4oyK
GxEC6nYLxW6siZIE3YKCboXOjWh6+PUMieZFjSdhbco6Sm0kvpZtwuB4LWA6mvAm
++DNxpLq8yp8BNBme2kDGVyb+7dY4rRljr0USudg/iwbrd7EGSd8Pfy+WLIjzoTA
X78n2WMcbyaGbnwfQN/oX1Dlry3DhxQREy/FFjJniJymrTEelC9otYq8UDbq55un
2mx725iQ12xCeesCgcBhcPf4ZI/5NxJY2jdpggXF0Jd+EU7fX57h3YPilRAZAV2X
rxH1qebaLLU+QbdC8pWneJU0Ur28r4Nmggm2zAg11gfLfgiprC9slM1l4AxUa89v
pIYuxiGQqd0mSwlcTR/EDXg4bACgns82M9G39RveJeG1RZT8YzwDd6GHuiIPkBQx
+SGc6KqdmIhNirIyJ4+noJuZp0hinzcRJ9qsK0GXuL9eXxay9300i/d7bBKF84+U
KuSYAVLFWS0kOW/v+fECgcAPQbm0tgLBUEnxj4lWo5lTg9R8/PnBFuQFDMphg4n3
zXoYh35bl40Z1n74LMrxUyshGhP7iP7MQdzw7bOuXetMF9Fp5i741TyIdfFBwJF/
xi0rNVs9NEPG06TaGFUa4lEKCzY3EYA7qhH2mkovbIMqD2sNDorL8D6Bo9WgFky4
/poVbL2igtuahHeR4k2FTNTZPVrCOjPUarddO+CmvDkXAgx4WvyZT8sjHsxMlAvP
43nEYRzBZdBUiTBx5hY+5Ec=
-----END PRIVATE KEY-----
Certificate:
    Data:
        Version: 3 (0x2)
        Serial Number:
            cb:2d:80:99:5a:69:52:5c
        Signature Algorithm: sha256WithRSAEncryption
        Issuer: C=XY, O=Python Software Foundation CA, CN=our-ca-server
        Validity
            Not Before: Aug 29 14:23:16 2018 GMT
            Not After : Oct 28 14:23:16 2042 GMT
        Subject: C=XY, L=Castle Anthrax, O=Python Software Foundation, CN=localhost
        Subject Public Key Info:
            Public Key Algorithm: rsaEncryption
                Public-Key: (3072 bit)
                Modulus:
                    00:bf:95:e2:2a:50:87:25:7b:d1:00:c3:27:37:cc:
                    2f:d4:b3:22:80:bf:64:7c:16:6c:dd:60:44:89:51:
                    88:71:7d:01:2c:53:17:38:97:ea:77:fe:43:a3:37:
                    7f:6a:e8:3e:dd:46:98:dd:68:67:3c:79:d4:cc:4d:
                    58:12:e1:4a:b5:fe:8f:51:c3:d6:be:16:a9:4a:cc:
                    51:46:90:64:57:7e:4f:13:17:57:48:08:5e:81:f0:
                    39:cb:e6:35:00:c4:c8:28:b6:5f:ff:8d:d8:13:db:
                    95:13:d8:4c:60:ef:c6:e1:7e:dc:b7:8e:c6:30:e7:
                    7a:83:23:6d:d0:7f:d3:36:b2:1a:cf:d4:92:4e:e1:
                    86:da:5b:b4:08:7c:b8:3d:73:a9:8d:9f:59:b3:ee:
                    02:c5:40:1c:27:b9:1b:95:24:59:0b:47:8d:0a:44:
                    49:20:40:fd:77:7f:2e:75:84:3d:2d:48:2a:84:c6:
                    ce:e3:48:51:bb:89:34:80:3e:4e:71:a4:9d:07:98:
                    fe:ed:db:15:58:43:1e:cf:42:7c:d1:73:8e:96:51:
                    58:cf:b5:48:27:ab:d9:f3:af:48:fd:c8:e6:d6:47:
                    8b:9b:38:e8:82:ef:cf:3e:66:ad:f7:e7:d7:7a:c5:
                    4e:f2:72:b4:90:bc:13:81:7f:9d:0d:d2:42:29:e0:
                    e0:90:f5:5a:de:a7:d3:83:ad:e5:49:76:7c:9e:b3:
                    6f:aa:a6:da:50:23:47:fc:56:52:6d:e0:bf:f2:c4:
                    75:bc:f1:40:c5:a7:f9:b7:49:91:b3:09:34:c7:1d:
                    6a:25:b1:55:be:4a:1e:4c:9d:49:be:67:11:3c:29:
                    7d:17:30:e4:8f:7e:91:e5:10:57:b6:b9:3c:c3:60:
                    7c:08:e6:fe:c0:5a:ca:5a:9b:c4:24:de:1e:fb:f4:
                    32:60:f5:f4:41:ea:b7:c0:2e:64:14:d2:aa:bd:f3:
                    29:c1:2c:92:17:80:42:d7:b1:5c:bc:66:7f:67:6d:
                    c6:5d:c4:2b:b7:fc:c5:00:9d:95
                Exponent: 65537 (0x10001)
        X509v3 extensions:
            X509v3 Subject Alternative Name: 
                DNS:localhost
            X509v3 Key Usage: critical
                Digital Signature, Key Encipherment
            X509v3 Extended Key Usage: 
                TLS Web Server Authentication, TLS Web Client Authentication
            X509v3 Basic Constraints: critical
                CA:FALSE
            X509v3 Subject Key Identifier: 
                D2:02:95:14:FE:84:A5:24:84:53:E6:ED:B5:CF:6B:F6:79:54:14:7B
            X509v3 Authority Key Identifier: 
                keyid:AA:8A:80:4E:45:20:88:4B:6D:11:6B:4B:D2:85:DC:FF:85:F4:B8:50
                DirName:/C=XY/O=Python Software Foundation CA/CN=our-ca-server
                serial:CB:2D:80:99:5A:69:52:5B
            Authority Information Access: 
                CA Issuers - URI:http://testca.pythontest.net/testca/pycacert.cer
                OCSP - URI:http://testca.pythontest.net/testca/ocsp/
            X509v3 CRL Distribution Points: 
                Full Name:
                  URI:http://testca.pythontest.net/testca/revocation.crl
    Signature Algorithm: sha256WithRSAEncryption
    Signature Value:
        87:65:f9:48:1e:ad:31:da:7b:ea:9b:1e:2c:2b:02:61:c3:98:
        b0:d0:92:bd:c6:30:7b:8e:20:56:72:36:01:00:0d:35:a9:70:
        d6:50:f6:72:82:71:7a:94:e0:5e:91:72:70:bd:5a:0d:a2:24:
        d9:32:81:73:f7:ff:74:0b:37:71:5d:c5:61:67:69:09:b0:7f:
        20:0e:8a:a4:bc:e3:72:83:3e:a8:dd:4c:58:20:9c:97:42:5a:
        d7:78:d2:84:05:4e:f4:6c:14:42:d0:9f:a9:b7:d0:ec:e0:4b:
        eb:cc:c7:98:5f:a3:f9:d0:0a:d9:a0:fe:7d:f3:8e:65:55:1f:
        0b:b2:f7:5a:dd:18:1c:6b:72:a6:50:d2:99:cb:6e:bf:79:4b:
        b0:3a:89:dd:c8:ec:18:e9:6f:8f:9f:65:b5:3e:ef:0c:ff:bc:
        bb:87:37:1c:55:2e:bd:7a:22:88:02:96:20:38:63:1f:69:68:
        d8:f8:6f:91:6a:cf:9b:59:71:b8:0d:6a:db:4c:7d:e2:02:e1:
        65:c7:97:51:fa:50:20:30:c4:f7:68:29:56:75:e4:c6:dc:5b:
        8e:6c:53:79:ff:6d:ad:13:78:1a:15:4f:11:f8:ae:f8:f4:8b:
        76:91:82:e4:fd:97:3a:92:7e:14:a9:e8:4e:75:9c:84:33:e0:
        18:a8:94:0d:5d:e1:a4:da:eb:f0:5f:a4:3e:5d:ac:07:54:fd:
        7f:77:62:40:ca:51:16:de:21:84:3e:b9:8a:94:5f:3f:2f:7f:
        61:45:c5:27:cc:c9:3c:c2:01:ff:27:97:e8:69:f1:54:94:b2:
        1f:98:98:07:56:30:24:63:96:b1:bd:80:b9:bf:4e:33:cc:c9:
        8d:91:38:1f:51:0f:1f:db:57:51:de:26:50:fb:c7:fb:ec:db:
        de:7d:0e:ad:98:33:8d:47:51:37:73:9b:91:a3:bb:be:78:1d:
        2e:ae:24:99:cf:af:d8:be:a8:aa:75:f9:10:91:16:60:a1:ea:
        52:73:bb:7e:96:04
-----BEGIN CERTIFICATE-----
MIIF8TCCBFmgAwIBAgIJAMstgJlaaVJcMA0GCSqGSIb3DQEBCwUAME0xCzAJBgNV
BAYTAlhZMSYwJAYDVQQKDB1QeXRob24gU29mdHdhcmUgRm91bmRhdGlvbiBDQTEW
MBQGA1UEAwwNb3VyLWNhLXNlcnZlcjAeFw0xODA4MjkxNDIzMTZaFw00MjEwMjgx
NDIzMTZaMF8xCzAJBgNVBAYTAlhZMRcwFQYDVQQHDA5DYXN0bGUgQW50aHJheDEj
MCEGA1UECgwaUHl0aG9uIFNvZnR3YXJlIEZvdW5kYXRpb24xEjAQBgNVBAMMCWxv
Y2FsaG9zdDCCAaIwDQYJKoZIhvcNAQEBBQADggGPADCCAYoCggGBAL+V4ipQhyV7
0QDDJzfML9SzIoC/ZHwWbN1gRIlRiHF9ASxTFziX6nf+Q6M3f2roPt1GmN1oZzx5
1MxNWBLhSrX+j1HD1r4WqUrMUUaQZFd+TxMXV0gIXoHwOcvmNQDEyCi2X/+N2BPb
lRPYTGDvxuF+3LeOxjDneoMjbdB/0zayGs/Ukk7hhtpbtAh8uD1zqY2fWbPuAsVA
HCe5G5UkWQtHjQpESSBA/Xd/LnWEPS1IKoTGzuNIUbuJNIA+TnGknQeY/u3bFVhD
Hs9CfNFzjpZRWM+1SCer2fOvSP3I5tZHi5s46ILvzz5mrffn13rFTvJytJC8E4F/
nQ3SQing4JD1Wt6n04Ot5Ul2fJ6zb6qm2lAjR/xWUm3gv/LEdbzxQMWn+bdJkbMJ
NMcdaiWxVb5KHkydSb5nETwpfRcw5I9+keUQV7a5PMNgfAjm/sBaylqbxCTeHvv0
MmD19EHqt8AuZBTSqr3zKcEskheAQtexXLxmf2dtxl3EK7f8xQCdlQIDAQABo4IB
wDCCAbwwFAYDVR0RBA0wC4IJbG9jYWxob3N0MA4GA1UdDwEB/wQEAwIFoDAdBgNV
HSUEFjAUBggrBgEFBQcDAQYIKwYBBQUHAwIwDAYDVR0TAQH/BAIwADAdBgNVHQ4E
FgQU0gKVFP6EpSSEU+bttc9r9nlUFHswfQYDVR0jBHYwdIAUqoqATkUgiEttEWtL
0oXc/4X0uFChUaRPME0xCzAJBgNVBAYTAlhZMSYwJAYDVQQKDB1QeXRob24gU29m
dHdhcmUgRm91bmRhdGlvbiBDQTEWMBQGA1UEAwwNb3VyLWNhLXNlcnZlcoIJAMst
gJlaaVJbMIGDBggrBgEFBQcBAQR3MHUwPAYIKwYBBQUHMAKGMGh0dHA6Ly90ZXN0
Y2EucHl0aG9udGVzdC5uZXQvdGVzdGNhL3B5Y2FjZXJ0LmNlcjA1BggrBgEFBQcw
AYYpaHR0cDovL3Rlc3RjYS5weXRob250ZXN0Lm5ldC90ZXN0Y2Evb2NzcC8wQwYD
VR0fBDwwOjA4oDagNIYyaHR0cDovL3Rlc3RjYS5weXRob250ZXN0Lm5ldC90ZXN0
Y2EvcmV2b2NhdGlvbi5jcmwwDQYJKoZIhvcNAQELBQADggGBAIdl+UgerTHae+qb
HiwrAmHDmLDQkr3GMHuOIFZyNgEADTWpcNZQ9nKCcXqU4F6RcnC9Wg2iJNkygXP3
/3QLN3FdxWFnaQmwfyAOiqS843KDPqjdTFggnJdCWtd40oQFTvRsFELQn6m30Ozg
S+vMx5hfo/nQCtmg/n3zjmVVHwuy91rdGBxrcqZQ0pnLbr95S7A6id3I7Bjpb4+f
ZbU+7wz/vLuHNxxVLr16IogCliA4Yx9paNj4b5Fqz5tZcbgNattMfeIC4WXHl1H6
UCAwxPdoKVZ15MbcW45sU3n/ba0TeBoVTxH4rvj0i3aRguT9lzqSfhSp6E51nIQz
4BiolA1d4aTa6/BfpD5drAdU/X93YkDKURbeIYQ+uYqUXz8vf2FFxSfMyTzCAf8n
l+hp8VSUsh+YmAdWMCRjlrG9gLm/TjPMyY2ROB9RDx/bV1HeJlD7x/vs2959Dq2Y
M41HUTdzm5Gju754HS6uJJnPr9i+qKp1+RCRFmCh6lJzu36WBA==
-----END CERTIFICATE-----
