-----BEGIN PRIVATE KEY-----
MIIG/AIBADANBgkqhkiG9w0BAQEFAASCBuYwggbiAgEAAoIBgQDVFRBoXbdpGffO
9ZcqqodlsQp8kpoSfaXr8r7KFs1Ic+og1iQ2H4JowgixJsTjar/dV54+OQeVG1vI
Rh/6jh7fZIT5oGnOf6zp70JXAvILKL49sd3cAP2vJAedEbH/cEf4dgUP2GEubSap
84YFzCGCHsrNKslomlVwxTetd99Ho2zHMi8jSEeywmL8DaxORHxI/H4n2C+MGbsF
WQ12d1AX8uUCtpNufxBhKRtgbNTKIM7sQI3PmXGkzE3m08NfNdcZC2K6hhWmbQ44
ejZyTp5tpz7U6dHZY5E0qm8TTp88DEBM8lujczArGi+mGhqlUB6oPbgmlx6SkDo8
ZXWpAX3QGhp9P/F0cvSMGmQ56D8Msz8GGWxqNMah5kKL1bIP99qaeFge4/dp0Qf8
cr+KwxaVIAcvYxFscYzafqhK7K33d1maFRCjOWcLhE4RnGI0tvIWgEf2ut+lUKGX
r/p5FS2x3blAJ4pmlTUu4YkqiTbO0zi7DLTltl4CFH4Fy5VXaIsCAwEAAQKCAYAb
mvuBseaBmMooh1u6vNYGwC1+HxYT4DBfRZcfIl4dDVtfPq75ThK8lKrAnKe0WM+b
ku7e28+WKzG0XBVnhgMM6P5rQrOCe7sAoa0kDa8i7/fZkVIPXxd+mbncyP6Y+8hv
MYcNWviYJa71JKYP2TbcHzYh53Gpehkon3xLnnSQWOVOVzuRJBuZ1qIxSmowx6Gc
aQ3FBrZ+PZUjp7pdRy7as26k79dg4NhT5hn0X5UfzKlSJTjaFOSKt6c+COBOVPCY
9ZakktDYQL8DzB+QxacI13wkLa3JY1grHCi1pGEJaYpP1nRvNMfLKzVbvZCZr2eh
hNAtIHupFtO/BCmibRfxk3xhr0qpD9IfBVuAXc1r/SPeRizy05E0jZRDRcubiiAd
hjUv42pkGipuCAaD8gMLcvH6f2VY/HNRtF6/TzRyfKUuqx/MHb9GF7fr0kEbvFAF
2vvgytfLAM2uGfc4OPbycYQFaESMAvaH0bIcOxwKh3dOkj1x44bm6n0Jx0fQrlUC
gcEA7+xhFeuZXGl62hqBYch+EK+j5y0qHxNxg9PdCUcbkhinoNj6LLSl0wjjWIrd
1fRHOcUIjrNcsWp2+3veLqDsfC3Kq5GDvAAph+RhOyoohv1YMc0hrUGmhxsYkiHN
PCIbl4b7XOwrpTACkkPouDWPsnT3h57FV00dAa0yDT5aXlO1Dl9nDH2o8vGprc/1
KZZb8BfoL2t16BqxmKquYhwUw2YrxM1QRBmaakXWgMxgYbA0nn9R+/1rUgv3QXwG
l3FNAoHBAONcQXvLe+FH0K4a3F63AfDMdYk7m8VQdClAtWmm1CEILtg/bGtD5lo1
UCI7/pXMt/iNG4l1G7py2X6yAM8gMtA1hUHW0iyTrsEcHGvGlPu8cuZjM0PkPqjQ
HUVlWmw2e2hcuZNhixuk4Sq7FjOUPGHz0YuYGZkD7K8VQjWaEnsHw0KwW1qYXP+X
uOQ87DjeiD7FEUGRNz2Ac3V7HncPUFZeojaVZoYtjnkKxxAI10gM5619B16evNqn
0T9ouy3VNwKBwBZx46c8Ui2OBJswzZfLPNfsxoWS+RTNKdpuUIhUqaSiP9RRWB4k
jDrQ4wveeeBRKPSjlShcaTiDwDvIm8F69oSreAFS7KMC1N/Morf5Oq9eNgj6qsLd
mGmdRFAvb1bHzhL/4rYPtgmPEz6BsdzBzf6g6KM8XDPNmAAXJs6MXcHjTNXaYPaP
LuYDa59CDCpm0ZUFd4gwImijTqf8l7G/9MVO4ptXpcGpL4PvoqCL/hxFcra9LHtJ
eufDDM+IfclfJQKBwBFxboS049gwzk3NOcL6f2eeCBZzQEwvE/pmQITOi8/M9Osa
UpMYLoAVPwShXbLYdfTXvpkZJvty/ETAG1fIvJ1EveiDNrS8z9d49KVAIwX9O0N5
sOEwja4d6WD9maZbt7QWCRbJkQaZ67x/hgCHCuro7dar4KrgpjP4iY/bNjfCLLTd
GuUkc14YodLA6c6jJAjMzboeDgLl6/XDcF7qCdvWftN5OthoflnC/eq5AutAMjYZ
NYuI2ixcW61lt5aYmQKBwCFAxj0u3/CaT7g+Tvfuxuwh5JkjHFjzHkp28bqQI/PK
17PRybzoR1nxYLgEoMSypprganMw4qusbnDhV+tkNOt4lkzo9Y42zXKsEiJe7gOR
Z+Ua7PR79zK+ch3C/JWO+Q/hxRkRV9B1Xb0vKMWX7gqPAmWxmvm/k25Hmcj3RnCP
TvgC8xbbQOLyoJWGxiBCvWgm+DM8IPXqj1elNpo8xvp6ZaJgM1QJ1T3oS9gVCDBX
E/r5yU2tzhHLc2pLCWdTPw==
-----END PRIVATE KEY-----
Certificate:
    Data:
        Version: 3 (0x2)
        Serial Number:
            cb:2d:80:99:5a:69:52:5d
        Signature Algorithm: sha256WithRSAEncryption
        Issuer: C=XY, O=Python Software Foundation CA, CN=our-ca-server
        Validity
            Not Before: Aug 29 14:23:16 2018 GMT
            Not After : Oct 28 14:23:16 2042 GMT
        Subject: C=XY, L=Castle Anthrax, O=Python Software Foundation, CN=fakehostname
        Subject Public Key Info:
            Public Key Algorithm: rsaEncryption
                Public-Key: (3072 bit)
                Modulus:
                    00:d5:15:10:68:5d:b7:69:19:f7:ce:f5:97:2a:aa:
                    87:65:b1:0a:7c:92:9a:12:7d:a5:eb:f2:be:ca:16:
                    cd:48:73:ea:20:d6:24:36:1f:82:68:c2:08:b1:26:
                    c4:e3:6a:bf:dd:57:9e:3e:39:07:95:1b:5b:c8:46:
                    1f:fa:8e:1e:df:64:84:f9:a0:69:ce:7f:ac:e9:ef:
                    42:57:02:f2:0b:28:be:3d:b1:dd:dc:00:fd:af:24:
                    07:9d:11:b1:ff:70:47:f8:76:05:0f:d8:61:2e:6d:
                    26:a9:f3:86:05:cc:21:82:1e:ca:cd:2a:c9:68:9a:
                    55:70:c5:37:ad:77:df:47:a3:6c:c7:32:2f:23:48:
                    47:b2:c2:62:fc:0d:ac:4e:44:7c:48:fc:7e:27:d8:
                    2f:8c:19:bb:05:59:0d:76:77:50:17:f2:e5:02:b6:
                    93:6e:7f:10:61:29:1b:60:6c:d4:ca:20:ce:ec:40:
                    8d:cf:99:71:a4:cc:4d:e6:d3:c3:5f:35:d7:19:0b:
                    62:ba:86:15:a6:6d:0e:38:7a:36:72:4e:9e:6d:a7:
                    3e:d4:e9:d1:d9:63:91:34:aa:6f:13:4e:9f:3c:0c:
                    40:4c:f2:5b:a3:73:30:2b:1a:2f:a6:1a:1a:a5:50:
                    1e:a8:3d:b8:26:97:1e:92:90:3a:3c:65:75:a9:01:
                    7d:d0:1a:1a:7d:3f:f1:74:72:f4:8c:1a:64:39:e8:
                    3f:0c:b3:3f:06:19:6c:6a:34:c6:a1:e6:42:8b:d5:
                    b2:0f:f7:da:9a:78:58:1e:e3:f7:69:d1:07:fc:72:
                    bf:8a:c3:16:95:20:07:2f:63:11:6c:71:8c:da:7e:
                    a8:4a:ec:ad:f7:77:59:9a:15:10:a3:39:67:0b:84:
                    4e:11:9c:62:34:b6:f2:16:80:47:f6:ba:df:a5:50:
                    a1:97:af:fa:79:15:2d:b1:dd:b9:40:27:8a:66:95:
                    35:2e:e1:89:2a:89:36:ce:d3:38:bb:0c:b4:e5:b6:
                    5e:02:14:7e:05:cb:95:57:68:8b
                Exponent: 65537 (0x10001)
        X509v3 extensions:
            X509v3 Subject Alternative Name: 
                DNS:fakehostname
            X509v3 Key Usage: critical
                Digital Signature, Key Encipherment
            X509v3 Extended Key Usage: 
                TLS Web Server Authentication, TLS Web Client Authentication
            X509v3 Basic Constraints: critical
                CA:FALSE
            X509v3 Subject Key Identifier: 
                1C:E4:00:C6:A8:9B:C7:EB:3E:B1:33:08:C0:97:BD:39:A2:47:F4:A7
            X509v3 Authority Key Identifier: 
                keyid:AA:8A:80:4E:45:20:88:4B:6D:11:6B:4B:D2:85:DC:FF:85:F4:B8:50
                DirName:/C=XY/O=Python Software Foundation CA/CN=our-ca-server
                serial:CB:2D:80:99:5A:69:52:5B
            Authority Information Access: 
                CA Issuers - URI:http://testca.pythontest.net/testca/pycacert.cer
                OCSP - URI:http://testca.pythontest.net/testca/ocsp/
            X509v3 CRL Distribution Points: 
                Full Name:
                  URI:http://testca.pythontest.net/testca/revocation.crl
    Signature Algorithm: sha256WithRSAEncryption
    Signature Value:
        0a:98:6a:68:d7:6c:32:01:8c:40:db:95:0e:52:0f:09:68:3b:
        65:07:e5:5b:71:71:9f:40:aa:fd:0d:e5:28:6d:e4:c1:49:c1:
        18:b2:4c:cd:cf:51:b6:4d:a1:a5:1f:66:53:7c:56:f6:01:5c:
        c6:38:7d:66:7e:21:b2:00:65:38:5b:90:e8:3a:49:b8:ff:54:
        e8:fb:28:57:a2:8f:50:14:be:64:5e:47:27:9f:60:3e:f9:5a:
        a8:7d:7f:56:85:db:fa:e2:99:4b:2a:5d:f5:b9:94:9e:ee:f7:
        4a:02:f3:44:76:37:01:40:6e:b2:46:15:f8:03:8b:c4:be:a5:
        41:08:12:e1:ff:7e:80:de:d2:dc:41:85:e1:a0:9b:d5:91:33:
        fb:fe:7e:9e:35:f3:51:6d:5c:1c:54:b8:fc:b8:44:8d:f7:bd:
        19:d9:57:55:4f:8b:4a:db:4d:01:e7:5d:ad:44:3a:87:0d:ad:
        b9:51:6e:14:d7:c7:c4:65:7d:af:15:70:5c:e3:2f:21:53:e5:
        74:af:96:ac:e6:5b:6b:19:77:f7:b8:c9:f5:5d:6c:9d:43:0e:
        71:6a:2c:88:66:cc:5b:c3:4a:99:03:ff:17:c5:65:e4:85:02:
        0e:66:87:43:06:85:a5:31:14:35:ea:2f:e1:f2:7e:d5:5a:88:
        c6:e0:82:db:84:9f:20:66:93:c9:53:23:58:86:71:d0:b1:6e:
        85:8c:b4:8f:27:e9:e7:a0:c4:e5:d6:38:bf:d6:d7:e0:d6:81:
        17:2e:94:e9:10:e5:cd:1a:5e:9e:17:3e:63:47:2e:65:04:59:
        26:79:a1:49:41:4b:24:27:fd:ad:e2:55:38:95:12:5f:60:26:
        77:b2:a0:21:93:63:77:87:71:54:f1:7d:b0:ec:bb:f6:90:14:
        05:bf:5e:80:d4:05:01:ce:49:8c:d0:e2:08:67:0d:e6:e3:c1:
        aa:5c:85:39:30:9f:72:42:9b:ce:a8:d7:a2:6e:b2:69:92:a6:
        1b:ae:a8:d3:5b:d0
-----BEGIN CERTIFICATE-----
MIIF9zCCBF+gAwIBAgIJAMstgJlaaVJdMA0GCSqGSIb3DQEBCwUAME0xCzAJBgNV
BAYTAlhZMSYwJAYDVQQKDB1QeXRob24gU29mdHdhcmUgRm91bmRhdGlvbiBDQTEW
MBQGA1UEAwwNb3VyLWNhLXNlcnZlcjAeFw0xODA4MjkxNDIzMTZaFw00MjEwMjgx
NDIzMTZaMGIxCzAJBgNVBAYTAlhZMRcwFQYDVQQHDA5DYXN0bGUgQW50aHJheDEj
MCEGA1UECgwaUHl0aG9uIFNvZnR3YXJlIEZvdW5kYXRpb24xFTATBgNVBAMMDGZh
a2Vob3N0bmFtZTCCAaIwDQYJKoZIhvcNAQEBBQADggGPADCCAYoCggGBANUVEGhd
t2kZ9871lyqqh2WxCnySmhJ9pevyvsoWzUhz6iDWJDYfgmjCCLEmxONqv91Xnj45
B5UbW8hGH/qOHt9khPmgac5/rOnvQlcC8gsovj2x3dwA/a8kB50Rsf9wR/h2BQ/Y
YS5tJqnzhgXMIYIeys0qyWiaVXDFN61330ejbMcyLyNIR7LCYvwNrE5EfEj8fifY
L4wZuwVZDXZ3UBfy5QK2k25/EGEpG2Bs1MogzuxAjc+ZcaTMTebTw1811xkLYrqG
FaZtDjh6NnJOnm2nPtTp0dljkTSqbxNOnzwMQEzyW6NzMCsaL6YaGqVQHqg9uCaX
HpKQOjxldakBfdAaGn0/8XRy9IwaZDnoPwyzPwYZbGo0xqHmQovVsg/32pp4WB7j
92nRB/xyv4rDFpUgBy9jEWxxjNp+qErsrfd3WZoVEKM5ZwuEThGcYjS28haAR/a6
36VQoZev+nkVLbHduUAnimaVNS7hiSqJNs7TOLsMtOW2XgIUfgXLlVdoiwIDAQAB
o4IBwzCCAb8wFwYDVR0RBBAwDoIMZmFrZWhvc3RuYW1lMA4GA1UdDwEB/wQEAwIF
oDAdBgNVHSUEFjAUBggrBgEFBQcDAQYIKwYBBQUHAwIwDAYDVR0TAQH/BAIwADAd
BgNVHQ4EFgQUHOQAxqibx+s+sTMIwJe9OaJH9KcwfQYDVR0jBHYwdIAUqoqATkUg
iEttEWtL0oXc/4X0uFChUaRPME0xCzAJBgNVBAYTAlhZMSYwJAYDVQQKDB1QeXRo
b24gU29mdHdhcmUgRm91bmRhdGlvbiBDQTEWMBQGA1UEAwwNb3VyLWNhLXNlcnZl
coIJAMstgJlaaVJbMIGDBggrBgEFBQcBAQR3MHUwPAYIKwYBBQUHMAKGMGh0dHA6
Ly90ZXN0Y2EucHl0aG9udGVzdC5uZXQvdGVzdGNhL3B5Y2FjZXJ0LmNlcjA1Bggr
BgEFBQcwAYYpaHR0cDovL3Rlc3RjYS5weXRob250ZXN0Lm5ldC90ZXN0Y2Evb2Nz
cC8wQwYDVR0fBDwwOjA4oDagNIYyaHR0cDovL3Rlc3RjYS5weXRob250ZXN0Lm5l
dC90ZXN0Y2EvcmV2b2NhdGlvbi5jcmwwDQYJKoZIhvcNAQELBQADggGBAAqYamjX
bDIBjEDblQ5SDwloO2UH5VtxcZ9Aqv0N5Sht5MFJwRiyTM3PUbZNoaUfZlN8VvYB
XMY4fWZ+IbIAZThbkOg6Sbj/VOj7KFeij1AUvmReRyefYD75Wqh9f1aF2/rimUsq
XfW5lJ7u90oC80R2NwFAbrJGFfgDi8S+pUEIEuH/foDe0txBheGgm9WRM/v+fp41
81FtXBxUuPy4RI33vRnZV1VPi0rbTQHnXa1EOocNrblRbhTXx8Rlfa8VcFzjLyFT
5XSvlqzmW2sZd/e4yfVdbJ1DDnFqLIhmzFvDSpkD/xfFZeSFAg5mh0MGhaUxFDXq
L+HyftVaiMbggtuEnyBmk8lTI1iGcdCxboWMtI8n6eegxOXWOL/W1+DWgRculOkQ
5c0aXp4XPmNHLmUEWSZ5oUlBSyQn/a3iVTiVEl9gJneyoCGTY3eHcVTxfbDsu/aQ
FAW/XoDUBQHOSYzQ4ghnDebjwapchTkwn3JCm86o16JusmmSphuuqNNb0A==
-----END CERTIFICATE-----
