-----BEGIN PRIVATE KEY-----
MIG2AgEAMBAGByqGSM49AgEGBSuBBAAiBIGeMIGbAgEBBDCkuhxQsN6TNFVq0Qp6
yGje7TiexeDLwCjRalSN08/ptcmJB2gLvORH8+9GCaqaq/+hZANiAASq281T2Lt8
SzDj3KghwIJe/K6aYaNPgXiCUrTmbC4UeuegkHwAi4cCArqLuMyH1PAyIXfJElad
P9KMr8PpM7mS5FrsNYFHtg7JpeH9RrBnDNjWwfUzvYU/SKvpNggwhWI=
-----END PRIVATE KEY-----
Certificate:
    Data:
        Version: 3 (0x2)
        Serial Number:
            cb:2d:80:99:5a:69:52:5e
        Signature Algorithm: sha256WithRSAEncryption
        Issuer: C=XY, O=Python Software Foundation CA, CN=our-ca-server
        Validity
            Not Before: Aug 29 14:23:16 2018 GMT
            Not After : Oct 28 14:23:16 2042 GMT
        Subject: C=XY, L=Castle Anthrax, O=Python Software Foundation, CN=localhost-ecc
        Subject Public Key Info:
            Public Key Algorithm: id-ecPublicKey
                Public-Key: (384 bit)
                pub:
                    04:aa:db:cd:53:d8:bb:7c:4b:30:e3:dc:a8:21:c0:
                    82:5e:fc:ae:9a:61:a3:4f:81:78:82:52:b4:e6:6c:
                    2e:14:7a:e7:a0:90:7c:00:8b:87:02:02:ba:8b:b8:
                    cc:87:d4:f0:32:21:77:c9:12:56:9d:3f:d2:8c:af:
                    c3:e9:33:b9:92:e4:5a:ec:35:81:47:b6:0e:c9:a5:
                    e1:fd:46:b0:67:0c:d8:d6:c1:f5:33:bd:85:3f:48:
                    ab:e9:36:08:30:85:62
                ASN1 OID: secp384r1
                NIST CURVE: P-384
        X509v3 extensions:
            X509v3 Subject Alternative Name: 
                DNS:localhost-ecc
            X509v3 Key Usage: critical
                Digital Signature, Key Encipherment
            X509v3 Extended Key Usage: 
                TLS Web Server Authentication, TLS Web Client Authentication
            X509v3 Basic Constraints: critical
                CA:FALSE
            X509v3 Subject Key Identifier: 
                D2:49:D0:E6:A1:AC:68:91:58:E4:43:5C:E9:D9:9F:32:C7:DE:B3:46
            X509v3 Authority Key Identifier: 
                keyid:AA:8A:80:4E:45:20:88:4B:6D:11:6B:4B:D2:85:DC:FF:85:F4:B8:50
                DirName:/C=XY/O=Python Software Foundation CA/CN=our-ca-server
                serial:CB:2D:80:99:5A:69:52:5B
            Authority Information Access: 
                CA Issuers - URI:http://testca.pythontest.net/testca/pycacert.cer
                OCSP - URI:http://testca.pythontest.net/testca/ocsp/
            X509v3 CRL Distribution Points: 
                Full Name:
                  URI:http://testca.pythontest.net/testca/revocation.crl
    Signature Algorithm: sha256WithRSAEncryption
    Signature Value:
        a7:22:40:c5:7b:3f:b6:23:aa:75:fb:3e:76:9c:84:d9:f4:06:
        3a:c3:8c:24:02:0f:a9:2e:82:0e:e5:62:a5:dd:37:1f:ca:db:
        51:bd:93:0c:71:c7:a5:39:76:8c:69:aa:0f:6d:4e:dc:8a:ac:
        77:a4:f6:35:9e:fb:55:03:05:6e:1e:3e:fb:b9:82:fa:03:96:
        b5:64:72:9e:ce:76:ab:af:1e:03:36:7c:71:50:18:c1:69:93:
        f6:2b:ec:92:93:be:11:9e:9b:af:81:3c:32:61:5d:50:41:b2:
        b9:6d:e6:f6:66:ee:84:17:ab:7e:8f:80:37:1e:df:80:25:24:
        39:ee:e6:0e:3f:a2:fb:d5:15:2e:6f:e7:fa:19:b8:4d:a5:77:
        6b:df:26:f2:ae:6e:7d:c8:17:02:81:31:f8:6c:2f:f6:45:27:
        7c:5f:cc:be:82:2c:2c:28:20:fe:ab:02:af:1e:b9:54:3f:98:
        22:66:79:d4:66:28:8f:ad:fd:3d:94:94:4a:20:30:1f:e6:6a:
        f3:d6:c1:91:68:32:b2:33:85:64:60:b3:be:70:31:75:0b:d0:
        73:5d:ac:f0:ec:e0:9d:93:ce:8d:cf:9d:34:a9:b4:f4:e1:12:
        6b:b0:e9:c2:63:9f:17:f8:9e:9f:4d:fc:83:9b:5a:90:e5:80:
        f6:8a:aa:f9:a8:70:50:3d:34:45:74:96:a2:88:2b:c1:b9:07:
        d4:dc:33:7d:fe:4c:29:45:46:94:1e:45:92:30:3e:9a:90:f6:
        4f:71:df:85:7d:3a:c2:40:2a:cb:0e:d5:8b:6a:a3:82:78:a2:
        83:c3:b9:f9:ab:26:59:85:0e:45:3a:b2:47:9c:17:9d:5f:36:
        ce:f1:04:6e:7c:b0:45:aa:6a:d6:be:d6:71:17:d6:c6:62:e3:
        6f:fb:b3:b9:12:35:bc:8e:49:bd:db:ce:c5:c6:89:97:b4:a8:
        a5:19:ab:59:2c:1d:4f:ad:1f:26:44:7d:cb:f1:a8:f3:a4:db:
        09:23:8b:6f:bb:8f
-----BEGIN CERTIFICATE-----
MIIEyzCCAzOgAwIBAgIJAMstgJlaaVJeMA0GCSqGSIb3DQEBCwUAME0xCzAJBgNV
BAYTAlhZMSYwJAYDVQQKDB1QeXRob24gU29mdHdhcmUgRm91bmRhdGlvbiBDQTEW
MBQGA1UEAwwNb3VyLWNhLXNlcnZlcjAeFw0xODA4MjkxNDIzMTZaFw00MjEwMjgx
NDIzMTZaMGMxCzAJBgNVBAYTAlhZMRcwFQYDVQQHDA5DYXN0bGUgQW50aHJheDEj
MCEGA1UECgwaUHl0aG9uIFNvZnR3YXJlIEZvdW5kYXRpb24xFjAUBgNVBAMMDWxv
Y2FsaG9zdC1lY2MwdjAQBgcqhkjOPQIBBgUrgQQAIgNiAASq281T2Lt8SzDj3Kgh
wIJe/K6aYaNPgXiCUrTmbC4UeuegkHwAi4cCArqLuMyH1PAyIXfJEladP9KMr8Pp
M7mS5FrsNYFHtg7JpeH9RrBnDNjWwfUzvYU/SKvpNggwhWKjggHEMIIBwDAYBgNV
HREEETAPgg1sb2NhbGhvc3QtZWNjMA4GA1UdDwEB/wQEAwIFoDAdBgNVHSUEFjAU
BggrBgEFBQcDAQYIKwYBBQUHAwIwDAYDVR0TAQH/BAIwADAdBgNVHQ4EFgQU0knQ
5qGsaJFY5ENc6dmfMsfes0YwfQYDVR0jBHYwdIAUqoqATkUgiEttEWtL0oXc/4X0
uFChUaRPME0xCzAJBgNVBAYTAlhZMSYwJAYDVQQKDB1QeXRob24gU29mdHdhcmUg
Rm91bmRhdGlvbiBDQTEWMBQGA1UEAwwNb3VyLWNhLXNlcnZlcoIJAMstgJlaaVJb
MIGDBggrBgEFBQcBAQR3MHUwPAYIKwYBBQUHMAKGMGh0dHA6Ly90ZXN0Y2EucHl0
aG9udGVzdC5uZXQvdGVzdGNhL3B5Y2FjZXJ0LmNlcjA1BggrBgEFBQcwAYYpaHR0
cDovL3Rlc3RjYS5weXRob250ZXN0Lm5ldC90ZXN0Y2Evb2NzcC8wQwYDVR0fBDww
OjA4oDagNIYyaHR0cDovL3Rlc3RjYS5weXRob250ZXN0Lm5ldC90ZXN0Y2EvcmV2
b2NhdGlvbi5jcmwwDQYJKoZIhvcNAQELBQADggGBAKciQMV7P7YjqnX7PnachNn0
BjrDjCQCD6kugg7lYqXdNx/K21G9kwxxx6U5doxpqg9tTtyKrHek9jWe+1UDBW4e
Pvu5gvoDlrVkcp7OdquvHgM2fHFQGMFpk/Yr7JKTvhGem6+BPDJhXVBBsrlt5vZm
7oQXq36PgDce34AlJDnu5g4/ovvVFS5v5/oZuE2ld2vfJvKubn3IFwKBMfhsL/ZF
J3xfzL6CLCwoIP6rAq8euVQ/mCJmedRmKI+t/T2UlEogMB/mavPWwZFoMrIzhWRg
s75wMXUL0HNdrPDs4J2Tzo3PnTSptPThEmuw6cJjnxf4np9N/IObWpDlgPaKqvmo
cFA9NEV0lqKIK8G5B9TcM33+TClFRpQeRZIwPpqQ9k9x34V9OsJAKssO1Ytqo4J4
ooPDufmrJlmFDkU6skecF51fNs7xBG58sEWqata+1nEX1sZi42/7s7kSNbyOSb3b
zsXGiZe0qKUZq1ksHU+tHyZEfcvxqPOk2wkji2+7jw==
-----END CERTIFICATE-----
