-----BEGIN PRIVATE KEY-----
MIIG/QIBADANBgkqhkiG9w0BAQEFAASCBucwggbjAgEAAoIBgQCfVrBvhjzTZ0i9
bVF9+wmHuVWfcuAN7VcPEtQMCWYu3Gl+7ejKvHL7NLkvLCq2zDViIgoWrbgA9hzq
4eP9jSlR3xH7T8UxL4HCC8f6wwh/ckG7QnWDczNKxMeC5NsbNDr9s3mduxNS68Ls
N6cIeb9R3UjtjjtGtVmqaDUJu23fneKU2w/P8E/NvsV5NFlAk4V0aZ3yM+BZ+ZJi
CguE0zzsNbOXsEqH45jReAIwWBzenVbM4SkALSThyz1VBpA+TR7hP3C9y9m7zv5j
Ba4EfC5k4lxXLD2isNCaMIMLKPC4W/kDLFFYDOr+n4QCpbVtiUBctYMUl80uICoA
qnMifG4tI4fS5iumUvo98+u43SN4gxky5C4zbYblvAlX9/3QQ51ACawgBq0OKNmF
wV639sDVRt4gC2J80rnVfbQwF+p1WGJ6szztTlQjRvvITFS3HExJZyOhTv5eOggJ
FAH73JaTgqKRco+tf81QQJMucJO/QiM4FOAsoWGu6afuT7mC5uMCAwEAAQKCAYA1
EoXgD8FQ1PUoizH6mVQ6TeQUIQo5+VTnI2lXvQW5FBdbfNjuNkjCHXSVHsv3aRta
3WWo2iIQx+kn3ye2e39I0tlFcPOIh39b59qrTq0U7jSwr9k+eG+cNuERWzMT45jG
ijI29GniU77wOTU8oHi2RtOUtKxPx/Xeyajo3fIh6o/e7vxcUXnzWNijn2kfFkP8
W3WNh/PxZCx61Uey7T08nEJ+guzASHHNS4DHI4IyMAwKX/DtKxw+zRhXqsD+z2az
oPGBdwxVE7l3Zcj1Lt/3/3Nm7fdBa0qBiGbcdjSviTgNuH5UxUAo3tB0gyP8Yrup
K3BvfSPhAAZDZm9Kdrwbq4HTHSn1WMnK/koiHNlN2OvZvpJLou8ZU1ngyNp/4IzO
0Ua1ZV2GHuJ+YVxLgCTpcNsih3bIUcBx40CRm2dh9zDHIQCXDP7GySVPt2b5bNK5
CvbWIY2mAYMXeLV7ajaYmnjTNCJl/Be4cU2b7s7Zz4VvdjQxXm/B3dM4+tuYJCEC
gcEAuK/uJqwhvnl81Wv30b/vG4sL0b6UOwTHQUXsx3bpXuRzhxAP5JERrW7Whs+k
MDe9qSIgg4O1LkzyVzk5aWVu+H0PbFHMPOhqAvQyoJx6Z43ByPXBrwJrqaDzA1oY
zJXTe4rX0QcHfvpsHJ7mIXSHx2hcAgU7E+v+fJ8J7Q2oI21b0JhrNqwz415trF3j
bG9NNgiaP/7Sv1VXjlgcTw6m932KWDp55Qipvuqte5SGwl1MJbowh0M6N/FWvOjo
Lw1RAoHBANzdFgke4G+zOdyDD8v7FNuaDRhhr46x3bAWjH88OVvQQbNRLm0M30j4
LrGWkZdOlAAtv0wLJy9PmK289CUTltZ1mI/fT4nYh9wNTVBqdtFAeLNOM7rs2dzQ
f3FUMg47qN4YeiO5JE37uNzIC0D/ic2R5bnvMxTJB16ApuXRf3yEdc1rPPL/7Liz
6L2xQ4JuRqB3e4RftkHAYTydmwQkkSh9xwmnGjn1Y539P5NaxOQ9ATV4fWMHkYNb
8P6S2QhT8wKBwQCgX30QrdZbfUlOVoQK6n0qULLBvpkfKsYPwzWZ+4Mo+H3tYaA7
XVGZZa75v6MWj8Cs9sp/CUayXvTtku5svD0BoC9dYyZUGYm86Opxl4+fDnShGe7H
FvYAhZegaIMyXEQZenZvt4fl1nU84Sp7EKK7IL8Mrhgf84S4GK5Y38wKf3MEDubC
wgQIwz2/OIQ86+WDLzMqsQ+2P9hY7eAfMl0Aek5A0P56SOyFsWlV76KZcsSl2ik7
u7/5RiOIxUKhYRECgcBIYBqsenXJpM29OSWgDnNTUzQfXUOOWzLuVTVNLIsPTzt4
a43vJly1KL8Eavbiwlk1hcg+PxlkI41Awb6vt6+iL38DBoamAVLkBWfkhj7Ra3Mi
Luo8wwjRl3Frzc9pYpt/zD2aHz2KYIa/sr4dWp/pwXmqaHwwv3+utDH89Z31S+Le
odmjN8J29F28a65Xu5NhWkYbptGu0kALAQqfXOxEfJMQ0rWBcKxoRWjj/MawlF0l
DIrqPLyucx6SDcUZOYkCgcADU6AAxr9gnOwxmmjvoLAPYw6CujXzIf5v9KJ4haXF
pUbOjoqQuI0lUgBpCdM63PyPHhkTOrQXy5Z/iGUEETtIycDlLF81IBYd/XltJaG5
Yx6TZn6zaD9fvw94Tv1KGTzxsXXKyp4C9YR+Qrq4gv5t+X+BBwgCi1nP77KW/PNI
65ND8hkZbasDyK9ADxEGnD3QeuqTI/aRWlGnEa94L7xysQ1+8817lWywIH0vuj/h
y3vZsCApI/Zg+JbO/LqWHT8=
-----END PRIVATE KEY-----
Certificate:
    Data:
        Version: 1 (0x0)
        Serial Number:
            cb:2d:80:99:5a:69:52:61
        Signature Algorithm: sha256WithRSAEncryption
        Issuer: C=XY, O=Python Software Foundation CA, CN=our-ca-server
        Validity
            Not Before: Aug 29 14:23:16 2018 GMT
            Not After : Oct 28 14:23:16 2042 GMT
        Subject: C=XY, L=Castle Anthrax, O=Python Software Foundation, CN=nosan
        Subject Public Key Info:
            Public Key Algorithm: rsaEncryption
                Public-Key: (3072 bit)
                Modulus:
                    00:9f:56:b0:6f:86:3c:d3:67:48:bd:6d:51:7d:fb:
                    09:87:b9:55:9f:72:e0:0d:ed:57:0f:12:d4:0c:09:
                    66:2e:dc:69:7e:ed:e8:ca:bc:72:fb:34:b9:2f:2c:
                    2a:b6:cc:35:62:22:0a:16:ad:b8:00:f6:1c:ea:e1:
                    e3:fd:8d:29:51:df:11:fb:4f:c5:31:2f:81:c2:0b:
                    c7:fa:c3:08:7f:72:41:bb:42:75:83:73:33:4a:c4:
                    c7:82:e4:db:1b:34:3a:fd:b3:79:9d:bb:13:52:eb:
                    c2:ec:37:a7:08:79:bf:51:dd:48:ed:8e:3b:46:b5:
                    59:aa:68:35:09:bb:6d:df:9d:e2:94:db:0f:cf:f0:
                    4f:cd:be:c5:79:34:59:40:93:85:74:69:9d:f2:33:
                    e0:59:f9:92:62:0a:0b:84:d3:3c:ec:35:b3:97:b0:
                    4a:87:e3:98:d1:78:02:30:58:1c:de:9d:56:cc:e1:
                    29:00:2d:24:e1:cb:3d:55:06:90:3e:4d:1e:e1:3f:
                    70:bd:cb:d9:bb:ce:fe:63:05:ae:04:7c:2e:64:e2:
                    5c:57:2c:3d:a2:b0:d0:9a:30:83:0b:28:f0:b8:5b:
                    f9:03:2c:51:58:0c:ea:fe:9f:84:02:a5:b5:6d:89:
                    40:5c:b5:83:14:97:cd:2e:20:2a:00:aa:73:22:7c:
                    6e:2d:23:87:d2:e6:2b:a6:52:fa:3d:f3:eb:b8:dd:
                    23:78:83:19:32:e4:2e:33:6d:86:e5:bc:09:57:f7:
                    fd:d0:43:9d:40:09:ac:20:06:ad:0e:28:d9:85:c1:
                    5e:b7:f6:c0:d5:46:de:20:0b:62:7c:d2:b9:d5:7d:
                    b4:30:17:ea:75:58:62:7a:b3:3c:ed:4e:54:23:46:
                    fb:c8:4c:54:b7:1c:4c:49:67:23:a1:4e:fe:5e:3a:
                    08:09:14:01:fb:dc:96:93:82:a2:91:72:8f:ad:7f:
                    cd:50:40:93:2e:70:93:bf:42:23:38:14:e0:2c:a1:
                    61:ae:e9:a7:ee:4f:b9:82:e6:e3
                Exponent: 65537 (0x10001)
    Signature Algorithm: sha256WithRSAEncryption
    Signature Value:
        60:53:42:a0:2c:f2:58:26:ff:ed:18:ad:25:3e:fc:1b:e8:39:
        e3:cd:cc:06:60:b5:96:00:46:49:9a:73:e3:bd:46:1d:7e:60:
        c5:23:75:3d:6e:42:1d:8a:23:2f:40:a3:ca:dd:b9:f2:c4:dc:
        e5:da:26:e6:81:58:fa:d1:e2:0e:42:45:5c:30:64:74:c9:90:
        e8:3f:0c:eb:55:bb:f9:3e:64:18:d8:79:3d:76:9f:4a:5f:f0:
        03:bc:c0:3f:15:b8:4c:79:ed:66:87:ee:e7:68:af:34:ad:40:
        6b:c5:66:09:ce:1f:50:6b:96:9c:89:28:fd:0e:6a:57:e3:c8:
        eb:53:c3:7a:82:34:34:70:b5:d7:34:82:77:1c:c8:f9:23:d8:
        f5:5e:94:10:6a:7a:72:0c:93:4b:db:a9:03:48:da:b8:51:c4:
        87:09:84:09:82:54:6e:f7:0b:f7:46:35:13:df:70:80:7e:a5:
        3c:1d:5d:4c:e8:fe:ae:d8:0e:5a:36:d1:3e:5e:c1:ac:b6:c5:
        f7:a8:d1:60:99:b9:28:30:79:f6:09:53:28:6a:3c:29:1e:48:
        04:60:0a:a3:80:d7:3a:ca:7a:62:53:af:e1:fd:9f:67:8b:67:
        64:db:04:5f:f4:9f:7e:ea:7f:e0:0f:e7:8f:b4:e4:3d:fe:a7:
        63:1b:d8:ac:6c:a4:15:5d:a0:8a:c3:77:72:a3:e5:b1:3d:a4:
        3d:a2:49:df:bc:4a:7f:68:ab:a7:92:9f:a6:f4:67:34:ee:53:
        da:6c:ff:9c:ec:4c:a1:e2:c3:c6:a6:95:a2:8c:54:04:8c:57:
        f3:a6:a6:44:93:fd:4e:0a:ff:f7:91:05:26:c7:4f:91:da:3a:
        d2:c3:fe:a1:0d:17:15:74:d9:ab:0a:6a:23:0b:11:24:bf:12:
        0f:4b:63:bf:c5:b3:6a:7a:b2:a9:82:b9:b0:b9:af:ee:83:27:
        59:e1:49:97:de:4c:d2:b3:e4:05:e3:3e:c6:6e:70:9e:29:29:
        b6:db:d5:b3:0c:8b
-----BEGIN CERTIFICATE-----
MIIEJDCCAowCCQDLLYCZWmlSYTANBgkqhkiG9w0BAQsFADBNMQswCQYDVQQGEwJY
WTEmMCQGA1UECgwdUHl0aG9uIFNvZnR3YXJlIEZvdW5kYXRpb24gQ0ExFjAUBgNV
BAMMDW91ci1jYS1zZXJ2ZXIwHhcNMTgwODI5MTQyMzE2WhcNNDIxMDI4MTQyMzE2
WjBbMQswCQYDVQQGEwJYWTEXMBUGA1UEBwwOQ2FzdGxlIEFudGhyYXgxIzAhBgNV
BAoMGlB5dGhvbiBTb2Z0d2FyZSBGb3VuZGF0aW9uMQ4wDAYDVQQDDAVub3NhbjCC
AaIwDQYJKoZIhvcNAQEBBQADggGPADCCAYoCggGBAJ9WsG+GPNNnSL1tUX37CYe5
VZ9y4A3tVw8S1AwJZi7caX7t6Mq8cvs0uS8sKrbMNWIiChatuAD2HOrh4/2NKVHf
EftPxTEvgcILx/rDCH9yQbtCdYNzM0rEx4Lk2xs0Ov2zeZ27E1Lrwuw3pwh5v1Hd
SO2OO0a1WapoNQm7bd+d4pTbD8/wT82+xXk0WUCThXRpnfIz4Fn5kmIKC4TTPOw1
s5ewSofjmNF4AjBYHN6dVszhKQAtJOHLPVUGkD5NHuE/cL3L2bvO/mMFrgR8LmTi
XFcsPaKw0Jowgwso8Lhb+QMsUVgM6v6fhAKltW2JQFy1gxSXzS4gKgCqcyJ8bi0j
h9LmK6ZS+j3z67jdI3iDGTLkLjNthuW8CVf3/dBDnUAJrCAGrQ4o2YXBXrf2wNVG
3iALYnzSudV9tDAX6nVYYnqzPO1OVCNG+8hMVLccTElnI6FO/l46CAkUAfvclpOC
opFyj61/zVBAky5wk79CIzgU4CyhYa7pp+5PuYLm4wIDAQABMA0GCSqGSIb3DQEB
CwUAA4IBgQBgU0KgLPJYJv/tGK0lPvwb6DnjzcwGYLWWAEZJmnPjvUYdfmDFI3U9
bkIdiiMvQKPK3bnyxNzl2ibmgVj60eIOQkVcMGR0yZDoPwzrVbv5PmQY2Hk9dp9K
X/ADvMA/FbhMee1mh+7naK80rUBrxWYJzh9Qa5aciSj9DmpX48jrU8N6gjQ0cLXX
NIJ3HMj5I9j1XpQQanpyDJNL26kDSNq4UcSHCYQJglRu9wv3RjUT33CAfqU8HV1M
6P6u2A5aNtE+XsGstsX3qNFgmbkoMHn2CVMoajwpHkgEYAqjgNc6ynpiU6/h/Z9n
i2dk2wRf9J9+6n/gD+ePtOQ9/qdjG9isbKQVXaCKw3dyo+WxPaQ9oknfvEp/aKun
kp+m9Gc07lPabP+c7Eyh4sPGppWijFQEjFfzpqZEk/1OCv/3kQUmx0+R2jrSw/6h
DRcVdNmrCmojCxEkvxIPS2O/xbNqerKpgrmwua/ugydZ4UmX3kzSs+QF4z7GbnCe
KSm229WzDIs=
-----END CERTIFICATE-----
