Certificate:
    Data:
        Version: 3 (0x2)
        Serial Number:
            cb:2d:80:99:5a:69:52:5b
        Signature Algorithm: sha256WithRSAEncryption
        Issuer: C=XY, O=Python Software Foundation CA, CN=our-ca-server
        Validity
            Not Before: Aug 29 14:23:16 2018 GMT
            Not After : Oct 28 14:23:16 2042 GMT
        Subject: C=XY, O=Python Software Foundation CA, CN=our-ca-server
        Subject Public Key Info:
            Public Key Algorithm: rsaEncryption
                Public-Key: (3072 bit)
                Modulus:
                    00:bc:e3:84:30:6c:58:41:37:d1:26:e7:94:29:20:
                    c7:5c:ea:69:41:9d:68:1f:ab:d7:ee:79:89:93:9d:
                    14:97:0e:c0:59:d0:ea:cd:cd:32:8f:11:93:50:45:
                    7c:03:92:69:ec:f7:ff:9e:3f:70:cb:fb:e0:70:0c:
                    d6:b9:3a:39:7a:c0:30:3c:68:ae:5f:89:24:a8:43:
                    ac:d2:7f:32:12:47:9b:75:ea:58:ec:ed:b3:f7:83:
                    00:92:73:83:f6:22:56:67:b4:87:20:44:bb:8a:92:
                    b4:e4:89:54:8d:30:95:fe:32:83:08:4f:fe:7a:95:
                    d2:1e:97:01:60:70:66:8f:5b:b6:41:88:2d:1a:f1:
                    66:b5:cd:c7:38:9f:13:6f:db:1c:dc:8b:1a:d6:b6:
                    57:88:c9:6e:21:df:52:e6:b6:12:52:97:cf:57:68:
                    e5:f5:d2:fb:e8:4a:f0:d4:b0:c9:29:74:67:05:5a:
                    f3:07:e3:d9:87:42:3f:ad:5c:86:6c:59:c7:49:b2:
                    94:b8:50:6b:fe:cf:bb:18:f7:37:0c:cc:a5:95:1d:
                    36:a3:7b:c4:14:5a:00:e3:ec:38:86:66:de:ff:2e:
                    9f:ab:0e:06:79:e3:19:55:8e:7e:65:03:fe:4a:29:
                    e5:50:9f:97:47:0b:3b:86:cc:d8:b6:a1:5a:a2:cc:
                    24:a9:2f:91:cc:52:f0:28:f9:09:4e:0d:12:17:4d:
                    1d:eb:9c:82:71:aa:9c:24:d9:26:0c:cb:ba:0f:c5:
                    7b:3f:ae:ac:1b:fd:05:69:31:22:58:20:65:e0:8a:
                    b0:48:f4:d6:22:0f:6f:54:af:a1:59:50:a9:2b:a4:
                    bc:5d:16:de:c8:ab:9b:62:4c:af:ed:71:ba:74:e7:
                    eb:fd:cc:29:99:65:9b:4f:cf:1e:19:d9:2f:3b:ee:
                    ea:dd:48:15:b2:9c:ef:41:cb:5d:16:f8:0d:8e:33:
                    0b:c4:82:67:21:80:4b:85:df:71:7b:51:27:f5:ef:
                    6d:8a:0e:7b:78:1f:62:82:a5:f1
                Exponent: 65537 (0x10001)
        X509v3 extensions:
            X509v3 Subject Key Identifier: 
                AA:8A:80:4E:45:20:88:4B:6D:11:6B:4B:D2:85:DC:FF:85:F4:B8:50
            X509v3 Authority Key Identifier: 
                AA:8A:80:4E:45:20:88:4B:6D:11:6B:4B:D2:85:DC:FF:85:F4:B8:50
            X509v3 Basic Constraints: 
                CA:TRUE
    Signature Algorithm: sha256WithRSAEncryption
    Signature Value:
        b7:19:9e:80:2b:f7:8a:70:b5:c8:34:40:4d:a2:f7:0a:cf:ba:
        96:4d:41:9c:98:b2:df:55:9d:25:34:7b:8b:42:1f:81:78:5e:
        38:17:86:94:4f:ff:4c:59:b2:fe:23:9a:0e:2e:bc:92:4c:d2:
        90:b3:f2:9d:fd:13:b2:62:c6:c3:49:3d:67:97:53:64:30:2a:
        18:23:ed:67:bd:39:69:e9:9e:41:58:2a:87:b5:60:0e:3e:99:
        b4:b9:2d:3f:76:3d:c6:4c:3a:16:1e:7f:e3:cf:9e:56:0e:98:
        09:df:cc:70:d6:a0:2c:c8:48:7e:b3:38:56:6f:30:9b:f4:80:
        6e:1a:40:f6:72:2b:68:af:3b:25:ed:31:18:47:fc:6e:f1:04:
        c0:d9:7f:06:01:fc:14:b9:29:b0:fd:67:b4:f7:e6:77:35:5f:
        b2:a0:bb:53:56:53:ab:9a:42:db:9e:fb:1b:30:84:77:81:93:
        ae:94:0e:f1:1e:b6:0d:73:13:39:1b:d3:74:c8:f6:f7:9a:82:
        88:70:9e:0c:3a:26:13:10:ec:67:3e:84:d3:a0:f1:9a:1c:73:
        78:3a:fd:c3:90:31:9c:2d:61:e4:d3:18:67:15:0f:af:da:65:
        11:29:2e:6c:e4:13:f4:db:6b:19:d1:d0:45:67:30:52:1e:43:
        f5:af:51:2b:d1:7c:ae:b7:98:21:64:d9:96:fc:63:71:3b:d1:
        5e:a6:10:37:25:3d:27:e2:60:f5:bf:40:b7:e8:63:88:9e:e0:
        c6:a2:8a:6a:5e:c1:92:10:7d:b6:8b:1a:97:e6:86:27:3c:cf:
        91:b5:36:4e:f6:82:cb:1d:23:5c:4a:b6:76:30:31:41:a4:5c:
        7f:a2:40:a9:7a:73:2d:7b:b1:dc:7a:1e:32:c6:da:83:46:e0:
        98:f8:57:01:7a:fb:33:21:3c:c1:32:9e:17:9d:cd:04:ca:c6:
        c6:23:bc:59:36:ed:7c:de:b9:a7:7f:27:21:0b:c9:bb:01:37:
        20:6d:08:ba:ee:36
-----BEGIN CERTIFICATE-----
MIIEbTCCAtWgAwIBAgIJAMstgJlaaVJbMA0GCSqGSIb3DQEBCwUAME0xCzAJBgNV
BAYTAlhZMSYwJAYDVQQKDB1QeXRob24gU29mdHdhcmUgRm91bmRhdGlvbiBDQTEW
MBQGA1UEAwwNb3VyLWNhLXNlcnZlcjAeFw0xODA4MjkxNDIzMTZaFw00MjEwMjgx
NDIzMTZaME0xCzAJBgNVBAYTAlhZMSYwJAYDVQQKDB1QeXRob24gU29mdHdhcmUg
Rm91bmRhdGlvbiBDQTEWMBQGA1UEAwwNb3VyLWNhLXNlcnZlcjCCAaIwDQYJKoZI
hvcNAQEBBQADggGPADCCAYoCggGBALzjhDBsWEE30SbnlCkgx1zqaUGdaB+r1+55
iZOdFJcOwFnQ6s3NMo8Rk1BFfAOSaez3/54/cMv74HAM1rk6OXrAMDxorl+JJKhD
rNJ/MhJHm3XqWOzts/eDAJJzg/YiVme0hyBEu4qStOSJVI0wlf4ygwhP/nqV0h6X
AWBwZo9btkGILRrxZrXNxzifE2/bHNyLGta2V4jJbiHfUua2ElKXz1do5fXS++hK
8NSwySl0ZwVa8wfj2YdCP61chmxZx0mylLhQa/7Puxj3NwzMpZUdNqN7xBRaAOPs
OIZm3v8un6sOBnnjGVWOfmUD/kop5VCfl0cLO4bM2LahWqLMJKkvkcxS8Cj5CU4N
EhdNHeucgnGqnCTZJgzLug/Fez+urBv9BWkxIlggZeCKsEj01iIPb1SvoVlQqSuk
vF0W3sirm2JMr+1xunTn6/3MKZllm0/PHhnZLzvu6t1IFbKc70HLXRb4DY4zC8SC
ZyGAS4XfcXtRJ/XvbYoOe3gfYoKl8QIDAQABo1AwTjAdBgNVHQ4EFgQUqoqATkUg
iEttEWtL0oXc/4X0uFAwHwYDVR0jBBgwFoAUqoqATkUgiEttEWtL0oXc/4X0uFAw
DAYDVR0TBAUwAwEB/zANBgkqhkiG9w0BAQsFAAOCAYEAtxmegCv3inC1yDRATaL3
Cs+6lk1BnJiy31WdJTR7i0IfgXheOBeGlE//TFmy/iOaDi68kkzSkLPynf0TsmLG
w0k9Z5dTZDAqGCPtZ705aemeQVgqh7VgDj6ZtLktP3Y9xkw6Fh5/48+eVg6YCd/M
cNagLMhIfrM4Vm8wm/SAbhpA9nIraK87Je0xGEf8bvEEwNl/BgH8FLkpsP1ntPfm
dzVfsqC7U1ZTq5pC2577GzCEd4GTrpQO8R62DXMTORvTdMj295qCiHCeDDomExDs
Zz6E06DxmhxzeDr9w5AxnC1h5NMYZxUPr9plESkubOQT9NtrGdHQRWcwUh5D9a9R
K9F8rreYIWTZlvxjcTvRXqYQNyU9J+Jg9b9At+hjiJ7gxqKKal7BkhB9tosal+aG
JzzPkbU2TvaCyx0jXEq2djAxQaRcf6JAqXpzLXux3HoeMsbag0bgmPhXAXr7MyE8
wTKeF53NBMrGxiO8WTbtfN65p38nIQvJuwE3IG0Iuu42
-----END CERTIFICATE-----
